((lp0
cdatetime
datetime
p1
(S'\x07l\x01\x01\x00\x1a\x0c\x00\x00\x00'
p2
tp3
Rp4
ag1
(S'\x07l\x01\x01\x02\x1b\x1a\x00\x00\x00'
p5
tp6
Rp7
ag1
(S'\x07l\x01\x01\x02#,\x00\x00\x00'
p8
tp9
Rp10
ag1
(S'\x07l\x01\x01\x021\x0c\x00\x00\x00'
p11
tp12
Rp13
ag1
(S'\x07l\x01\x01\x03\x16\x1a\x00\x00\x00'
p14
tp15
Rp16
ag1
(S"\x07l\x01\x01\x03#'\x00\x00\x00"
p17
tp18
Rp19
ag1
(S'\x07l\x01\x01\x05*3\x00\x00\x00'
p20
tp21
Rp22
ag1
(S'\x07l\x01\x01\x077&\x00\x00\x00'
p23
tp24
Rp25
ag1
(S'\x07l\x01\x01\x078\t\x00\x00\x00'
p26
tp27
Rp28
ag1
(S'\x07l\x01\x01\x08\x02 \x00\x00\x00'
p29
tp30
Rp31
ag1
(S'\x07l\x01\x01\x08\x0c\x10\x00\x00\x00'
p32
tp33
Rp34
ag1
(S'\x07l\x01\x01\x08\x0c\x11\x00\x00\x00'
p35
tp36
Rp37
ag1
(S'\x07l\x01\x01\x08\x0c\x11\x00\x00\x00'
p38
tp39
Rp40
ag1
(S'\x07l\x01\x01\x08\x155\x00\x00\x00'
p41
tp42
Rp43
ag1
(S'\x07l\x01\x01\x08\x1e\x07\x00\x00\x00'
p44
tp45
Rp46
ag1
(S'\x07l\x01\x01\x08#\x0e\x00\x00\x00'
p47
tp48
Rp49
ag1
(S'\x07l\x01\x01\x08(,\x00\x00\x00'
p50
tp51
Rp52
ag1
(S'\x07l\x01\x01\x08,\n\x00\x00\x00'
p53
tp54
Rp55
ag1
(S'\x07l\x01\x01\x08/\x1e\x00\x00\x00'
p56
tp57
Rp58
ag1
(S'\x07l\x01\x01\x082\x08\x00\x00\x00'
p59
tp60
Rp61
ag1
(S'\x07l\x01\x01\x083\x13\x00\x00\x00'
p62
tp63
Rp64
ag1
(S'\x07l\x01\x01\x0845\x00\x00\x00'
p65
tp66
Rp67
ag1
(S'\x07l\x01\x01\x085:\x00\x00\x00'
p68
tp69
Rp70
ag1
(S'\x07l\x01\x01\x087\x1b\x00\x00\x00'
p71
tp72
Rp73
ag1
(S'\x07l\x01\x01\x089\x06\x00\x00\x00'
p74
tp75
Rp76
ag1
(S'\x07l\x01\x01\x08:*\x00\x00\x00'
p77
tp78
Rp79
ag1
(S'\x07l\x01\x01\x08;\x07\x00\x00\x00'
p80
tp81
Rp82
ag1
(S'\x07l\x01\x01\t\x00%\x00\x00\x00'
p83
tp84
Rp85
ag1
(S'\x07l\x01\x01\t\x02\x1c\x00\x00\x00'
p86
tp87
Rp88
ag1
(S'\x07l\x01\x01\t\x04 \x00\x00\x00'
p89
tp90
Rp91
ag1
(S'\x07l\x01\x01\t\x06"\x00\x00\x00'
p92
tp93
Rp94
ag1
(S'\x07l\x01\x01\t\x08\x18\x00\x00\x00'
p95
tp96
Rp97
ag1
(S'\x07l\x01\x01\t\x0b%\x00\x00\x00'
p98
tp99
Rp100
ag1
(S'\x07l\x01\x01\t\x0f\x1b\x00\x00\x00'
p101
tp102
Rp103
ag1
(S'\x07l\x01\x01\t\x13\t\x00\x00\x00'
p104
tp105
Rp106
ag1
(S'\x07l\x01\x01\t\x16\r\x00\x00\x00'
p107
tp108
Rp109
ag1
(S'\x07l\x01\x01\t\x181\x00\x00\x00'
p110
tp111
Rp112
ag1
(S'\x07l\x01\x01\t\x1c0\x00\x00\x00'
p113
tp114
Rp115
ag1
(S'\x07l\x01\x01\t\x1e8\x00\x00\x00'
p116
tp117
Rp118
ag1
(S'\x07l\x01\x01\t!5\x00\x00\x00'
p119
tp120
Rp121
ag1
(S'\x07l\x01\x01\t$.\x00\x00\x00'
p122
tp123
Rp124
ag1
(S"\x07l\x01\x01\t'%\x00\x00\x00"
p125
tp126
Rp127
ag1
(S'\x07l\x01\x01\t-\x13\x00\x00\x00'
p128
tp129
Rp130
ag1
(S'\x07l\x01\x01\t1&\x00\x00\x00'
p131
tp132
Rp133
ag1
(S'\x07l\x01\x01\t83\x00\x00\x00'
p134
tp135
Rp136
ag1
(S'\x07l\x01\x01\n\n.\x00\x00\x00'
p137
tp138
Rp139
ag1
(S'\x07l\x01\x01\n\x10(\x00\x00\x00'
p140
tp141
Rp142
ag1
(S'\x07l\x01\x01\n\x16\x07\x00\x00\x00'
p143
tp144
Rp145
ag1
(S'\x07l\x01\x01\n\x18\x0f\x00\x00\x00'
p146
tp147
Rp148
ag1
(S'\x07l\x01\x01\n\x1a;\x00\x00\x00'
p149
tp150
Rp151
ag1
(S'\x07l\x01\x01\n\x1d%\x00\x00\x00'
p152
tp153
Rp154
ag1
(S'\x07l\x01\x01\n 0\x00\x00\x00'
p155
tp156
Rp157
ag1
(S'\x07l\x01\x01\n%\x04\x00\x00\x00'
p158
tp159
Rp160
ag1
(S'\x07l\x01\x01\n)\x04\x00\x00\x00'
p161
tp162
Rp163
ag1
(S'\x07l\x01\x01\n.\x19\x00\x00\x00'
p164
tp165
Rp166
ag1
(S'\x07l\x01\x01\n3\x19\x00\x00\x00'
p167
tp168
Rp169
ag1
(S'\x07l\x01\x01\n7!\x00\x00\x00'
p170
tp171
Rp172
ag1
(S'\x07l\x01\x01\x0b\x00*\x00\x00\x00'
p173
tp174
Rp175
ag1
(S'\x07l\x01\x01\x0b\x07\x06\x00\x00\x00'
p176
tp177
Rp178
ag1
(S'\x07l\x01\x01\x0b\r\x1e\x00\x00\x00'
p179
tp180
Rp181
ag1
(S'\x07l\x01\x01\x0b\x13\x19\x00\x00\x00'
p182
tp183
Rp184
ag1
(S'\x07l\x01\x01\x0b\x1b\r\x00\x00\x00'
p185
tp186
Rp187
ag1
(S'\x07l\x01\x01\x0b\x1d\x1a\x00\x00\x00'
p188
tp189
Rp190
ag1
(S'\x07l\x01\x01\x0b \x1b\x00\x00\x00'
p191
tp192
Rp193
ag1
(S'\x07l\x01\x01\x0b%\x1a\x00\x00\x00'
p194
tp195
Rp196
ag1
(S'\x07l\x01\x01\x0b(!\x00\x00\x00'
p197
tp198
Rp199
ag1
(S'\x07l\x01\x01\x0b-)\x00\x00\x00'
p200
tp201
Rp202
ag1
(S'\x07l\x01\x01\x0b0\x01\x00\x00\x00'
p203
tp204
Rp205
ag1
(S'\x07l\x01\x01\x0b42\x00\x00\x00'
p206
tp207
Rp208
ag1
(S'\x07l\x01\x01\x0b8\x14\x00\x00\x00'
p209
tp210
Rp211
ag1
(S'\x07l\x01\x01\x0b:;\x00\x00\x00'
p212
tp213
Rp214
ag1
(S'\x07l\x01\x01\x0c\x03-\x00\x00\x00'
p215
tp216
Rp217
ag1
(S'\x07l\x01\x01\x0c\x07\x18\x00\x00\x00'
p218
tp219
Rp220
ag1
(S'\x07l\x01\x01\x0c\x10\x13\x00\x00\x00'
p221
tp222
Rp223
ag1
(S'\x07l\x01\x01\x0c\x163\x00\x00\x00'
p224
tp225
Rp226
ag1
(S'\x07l\x01\x01\x0c\x1a\x00\x00\x00\x00'
p227
tp228
Rp229
ag1
(S'\x07l\x01\x01\x0c\x1b9\x00\x00\x00'
p230
tp231
Rp232
ag1
(S'\x07l\x01\x01\x0c\x1d\r\x00\x00\x00'
p233
tp234
Rp235
ag1
(S'\x07l\x01\x01\x0c!\x11\x00\x00\x00'
p236
tp237
Rp238
ag1
(S"\x07l\x01\x01\x0c'\n\x00\x00\x00"
p239
tp240
Rp241
ag1
(S'\x07l\x01\x01\x0c+\x03\x00\x00\x00'
p242
tp243
Rp244
ag1
(S'\x07l\x01\x01\x0c/\x05\x00\x00\x00'
p245
tp246
Rp247
ag1
(S'\x07l\x01\x01\x0c2\x04\x00\x00\x00'
p248
tp249
Rp250
ag1
(S'\x07l\x01\x01\x0c3\x04\x00\x00\x00'
p251
tp252
Rp253
ag1
(S'\x07l\x01\x01\x0c6\x04\x00\x00\x00'
p254
tp255
Rp256
ag1
(S'\x07l\x01\x01\x0c9\x17\x00\x00\x00'
p257
tp258
Rp259
ag1
(S'\x07l\x01\x01\x0c;\x12\x00\x00\x00'
p260
tp261
Rp262
ag1
(S'\x07l\x01\x01\r\x01(\x00\x00\x00'
p263
tp264
Rp265
ag1
(S'\x07l\x01\x01\r\x03+\x00\x00\x00'
p266
tp267
Rp268
ag1
(S'\x07l\x01\x01\r\x054\x00\x00\x00'
p269
tp270
Rp271
ag1
(S'\x07l\x01\x01\r\x07\x16\x00\x00\x00'
p272
tp273
Rp274
ag1
(S'\x07l\x01\x01\r\t\x02\x00\x00\x00'
p275
tp276
Rp277
ag1
(S'\x07l\x01\x01\r\n&\x00\x00\x00'
p278
tp279
Rp280
ag1
(S'\x07l\x01\x01\r\x0b;\x00\x00\x00'
p281
tp282
Rp283
ag1
(S'\x07l\x01\x01\r\r\x19\x00\x00\x00'
p284
tp285
Rp286
ag1
(S'\x07l\x01\x01\r\x0f\x00\x00\x00\x00'
p287
tp288
Rp289
ag1
(S'\x07l\x01\x01\r\x10\x1f\x00\x00\x00'
p290
tp291
Rp292
ag1
(S'\x07l\x01\x01\r\x12/\x00\x00\x00'
p293
tp294
Rp295
ag1
(S'\x07l\x01\x01\r\x147\x00\x00\x00'
p296
tp297
Rp298
ag1
(S'\x07l\x01\x01\r\x16\x0b\x00\x00\x00'
p299
tp300
Rp301
ag1
(S'\x07l\x01\x01\r\x17/\x00\x00\x00'
p302
tp303
Rp304
ag1
(S'\x07l\x01\x01\r\x19\x0b\x00\x00\x00'
p305
tp306
Rp307
ag1
(S'\x07l\x01\x01\r\x1b\x1c\x00\x00\x00'
p308
tp309
Rp310
ag1
(S'\x07l\x01\x01\r\x1c,\x00\x00\x00'
p311
tp312
Rp313
ag1
(S'\x07l\x01\x01\r\x1e6\x00\x00\x00'
p314
tp315
Rp316
ag1
(S'\x07l\x01\x01\r!\x19\x00\x00\x00'
p317
tp318
Rp319
ag1
(S'\x07l\x01\x01\r!:\x00\x00\x00'
p320
tp321
Rp322
ag1
(S'\x07l\x01\x01\r"0\x00\x00\x00'
p323
tp324
Rp325
ag1
(S'\x07l\x01\x01\r$\x13\x00\x00\x00'
p326
tp327
Rp328
ag1
(S"\x07l\x01\x01\r&'\x00\x00\x00"
p329
tp330
Rp331
ag1
(S'\x07l\x01\x01\r(\x03\x00\x00\x00'
p332
tp333
Rp334
ag1
(S'\x07l\x01\x01\r*\x02\x00\x00\x00'
p335
tp336
Rp337
ag1
(S'\x07l\x01\x01\r+\x1b\x00\x00\x00'
p338
tp339
Rp340
ag1
(S'\x07l\x01\x01\r,0\x00\x00\x00'
p341
tp342
Rp343
ag1
(S'\x07l\x01\x01\r/*\x00\x00\x00'
p344
tp345
Rp346
ag1
(S'\x07l\x01\x01\r02\x00\x00\x00'
p347
tp348
Rp349
ag1
(S'\x07l\x01\x01\r3\x0c\x00\x00\x00'
p350
tp351
Rp352
ag1
(S'\x07l\x01\x01\r3,\x00\x00\x00'
p353
tp354
Rp355
ag1
(S'\x07l\x01\x01\r5"\x00\x00\x00'
p356
tp357
Rp358
ag1
(S'\x07l\x01\x01\r6;\x00\x00\x00'
p359
tp360
Rp361
ag1
(S'\x07l\x01\x01\r8\x04\x00\x00\x00'
p362
tp363
Rp364
ag1
(S'\x07l\x01\x01\r9 \x00\x00\x00'
p365
tp366
Rp367
ag1
(S'\x07l\x01\x01\r:\x12\x00\x00\x00'
p368
tp369
Rp370
ag1
(S'\x07l\x01\x01\r;6\x00\x00\x00'
p371
tp372
Rp373
ag1
(S'\x07l\x01\x01\x0e\x009\x00\x00\x00'
p374
tp375
Rp376
ag1
(S'\x07l\x01\x01\x0e\x020\x00\x00\x00'
p377
tp378
Rp379
ag1
(S'\x07l\x01\x01\x0e\x04;\x00\x00\x00'
p380
tp381
Rp382
ag1
(S'\x07l\x01\x01\x0e\x08\x1b\x00\x00\x00'
p383
tp384
Rp385
ag1
(S'\x07l\x01\x01\x0e\t6\x00\x00\x00'
p386
tp387
Rp388
ag1
(S'\x07l\x01\x01\x0e\n4\x00\x00\x00'
p389
tp390
Rp391
ag1
(S'\x07l\x01\x01\x0e\x0c(\x00\x00\x00'
p392
tp393
Rp394
ag1
(S'\x07l\x01\x01\x0e\x0f\x07\x00\x00\x00'
p395
tp396
Rp397
ag1
(S'\x07l\x01\x01\x0e\x10-\x00\x00\x00'
p398
tp399
Rp400
ag1
(S'\x07l\x01\x01\x0e\x12(\x00\x00\x00'
p401
tp402
Rp403
ag1
(S'\x07l\x01\x01\x0e\x133\x00\x00\x00'
p404
tp405
Rp406
ag1
(S'\x07l\x01\x01\x0e\x15\x12\x00\x00\x00'
p407
tp408
Rp409
ag1
(S'\x07l\x01\x01\x0e\x17\x10\x00\x00\x00'
p410
tp411
Rp412
ag1
(S'\x07l\x01\x01\x0e\x19\x00\x00\x00\x00'
p413
tp414
Rp415
ag1
(S'\x07l\x01\x01\x0e\x1b\x1a\x00\x00\x00'
p416
tp417
Rp418
ag1
(S'\x07l\x01\x01\x0e\x1d)\x00\x00\x00'
p419
tp420
Rp421
ag1
(S'\x07l\x01\x01\x0e !\x00\x00\x00'
p422
tp423
Rp424
ag1
(S'\x07l\x01\x01\x0e!:\x00\x00\x00'
p425
tp426
Rp427
ag1
(S'\x07l\x01\x01\x0e%\x12\x00\x00\x00'
p428
tp429
Rp430
ag1
(S"\x07l\x01\x01\x0e'\x1c\x00\x00\x00"
p431
tp432
Rp433
ag1
(S'\x07l\x01\x01\x0e*6\x00\x00\x00'
p434
tp435
Rp436
ag1
(S'\x07l\x01\x01\x0e-\x14\x00\x00\x00'
p437
tp438
Rp439
ag1
(S'\x07l\x01\x01\x0e2\x13\x00\x00\x00'
p440
tp441
Rp442
ag1
(S'\x07l\x01\x01\x0e4\x01\x00\x00\x00'
p443
tp444
Rp445
ag1
(S'\x07l\x01\x01\x0e7\x06\x00\x00\x00'
p446
tp447
Rp448
ag1
(S'\x07l\x01\x01\x0e81\x00\x00\x00'
p449
tp450
Rp451
ag1
(S'\x07l\x01\x01\x0e:\x1a\x00\x00\x00'
p452
tp453
Rp454
ag1
(S"\x07l\x01\x01\x0f\x00'\x00\x00\x00"
p455
tp456
Rp457
ag1
(S'\x07l\x01\x01\x0f\x04\x08\x00\x00\x00'
p458
tp459
Rp460
ag1
(S'\x07l\x01\x01\x0f\x06%\x00\x00\x00'
p461
tp462
Rp463
ag1
(S'\x07l\x01\x01\x0f\x082\x00\x00\x00'
p464
tp465
Rp466
ag1
(S'\x07l\x01\x01\x0f\x0b \x00\x00\x00'
p467
tp468
Rp469
ag1
(S'\x07l\x01\x01\x0f\x0f\x00\x00\x00\x00'
p470
tp471
Rp472
ag1
(S'\x07l\x01\x01\x0f\x146\x00\x00\x00'
p473
tp474
Rp475
ag1
(S'\x07l\x01\x01\x0f\x18\x18\x00\x00\x00'
p476
tp477
Rp478
ag1
(S'\x07l\x01\x01\x0f\x1f\x03\x00\x00\x00'
p479
tp480
Rp481
ag1
(S'\x07l\x01\x01\x0f"\x10\x00\x00\x00'
p482
tp483
Rp484
ag1
(S'\x07l\x01\x01\x0f$)\x00\x00\x00'
p485
tp486
Rp487
ag1
(S"\x07l\x01\x01\x0f'\x1a\x00\x00\x00"
p488
tp489
Rp490
ag1
(S'\x07l\x01\x01\x0f+5\x00\x00\x00'
p491
tp492
Rp493
ag1
(S'\x07l\x01\x01\x0f/(\x00\x00\x00'
p494
tp495
Rp496
ag1
(S'\x07l\x01\x01\x0f41\x00\x00\x00'
p497
tp498
Rp499
ag1
(S'\x07l\x01\x01\x0f8:\x00\x00\x00'
p500
tp501
Rp502
ag1
(S'\x07l\x01\x01\x0f;#\x00\x00\x00'
p503
tp504
Rp505
ag1
(S'\x07l\x01\x01\x10\x04;\x00\x00\x00'
p506
tp507
Rp508
ag1
(S'\x07l\x01\x01\x10\n-\x00\x00\x00'
p509
tp510
Rp511
ag1
(S'\x07l\x01\x01\x10\x0f\x17\x00\x00\x00'
p512
tp513
Rp514
ag1
(S'\x07l\x01\x01\x10\x13\x1e\x00\x00\x00'
p515
tp516
Rp517
ag1
(S'\x07l\x01\x01\x10\x17\x06\x00\x00\x00'
p518
tp519
Rp520
ag1
(S'\x07l\x01\x01\x10\x19\x02\x00\x00\x00'
p521
tp522
Rp523
ag1
(S'\x07l\x01\x01\x10\x1a \x00\x00\x00'
p524
tp525
Rp526
ag1
(S'\x07l\x01\x01\x10\x1b \x00\x00\x00'
p527
tp528
Rp529
ag1
(S'\x07l\x01\x01\x10\x1d(\x00\x00\x00'
p530
tp531
Rp532
ag1
(S'\x07l\x01\x01\x10\x1e0\x00\x00\x00'
p533
tp534
Rp535
ag1
(S'\x07l\x01\x01\x10!-\x00\x00\x00'
p536
tp537
Rp538
ag1
(S'\x07l\x01\x01\x10%\x07\x00\x00\x00'
p539
tp540
Rp541
ag1
(S"\x07l\x01\x01\x10'\x0c\x00\x00\x00"
p542
tp543
Rp544
ag1
(S"\x07l\x01\x01\x10)'\x00\x00\x00"
p545
tp546
Rp547
ag1
(S'\x07l\x01\x01\x10+\x13\x00\x00\x00'
p548
tp549
Rp550
ag1
(S'\x07l\x01\x01\x10,\x11\x00\x00\x00'
p551
tp552
Rp553
ag1
(S'\x07l\x01\x01\x10/\x01\x00\x00\x00'
p554
tp555
Rp556
ag1
(S'\x07l\x01\x01\x101\x0e\x00\x00\x00'
p557
tp558
Rp559
ag1
(S'\x07l\x01\x01\x1037\x00\x00\x00'
p560
tp561
Rp562
ag1
(S'\x07l\x01\x01\x106:\x00\x00\x00'
p563
tp564
Rp565
ag1
(S'\x07l\x01\x01\x10:\x13\x00\x00\x00'
p566
tp567
Rp568
ag1
(S'\x07l\x01\x01\x10;\x0e\x00\x00\x00'
p569
tp570
Rp571
ag1
(S'\x07l\x01\x01\x11\x01\x15\x00\x00\x00'
p572
tp573
Rp574
ag1
(S'\x07l\x01\x01\x11\x02(\x00\x00\x00'
p575
tp576
Rp577
ag1
(S'\x07l\x01\x01\x11\x04\x05\x00\x00\x00'
p578
tp579
Rp580
ag1
(S'\x07l\x01\x01\x11\x07 \x00\x00\x00'
p581
tp582
Rp583
ag1
(S'\x07l\x01\x01\x11\n6\x00\x00\x00'
p584
tp585
Rp586
ag1
(S'\x07l\x01\x01\x11\r8\x00\x00\x00'
p587
tp588
Rp589
ag1
(S'\x07l\x01\x01\x11\x12\x04\x00\x00\x00'
p590
tp591
Rp592
ag1
(S'\x07l\x01\x01\x11\x16\x15\x00\x00\x00'
p593
tp594
Rp595
ag1
(S'\x07l\x01\x01\x11\x1b\x13\x00\x00\x00'
p596
tp597
Rp598
ag1
(S'\x07l\x01\x01\x11!\n\x00\x00\x00'
p599
tp600
Rp601
ag1
(S"\x07l\x01\x01\x11'\x1a\x00\x00\x00"
p602
tp603
Rp604
ag1
(S'\x07l\x01\x01\x11*(\x00\x00\x00'
p605
tp606
Rp607
ag1
(S'\x07l\x01\x01\x11/\x1d\x00\x00\x00'
p608
tp609
Rp610
ag1
(S'\x07l\x01\x01\x112\x1a\x00\x00\x00'
p611
tp612
Rp613
ag1
(S'\x07l\x01\x01\x1149\x00\x00\x00'
p614
tp615
Rp616
ag1
(S'\x07l\x01\x01\x12\x00\x1b\x00\x00\x00'
p617
tp618
Rp619
ag1
(S'\x07l\x01\x01\x12\x06\x1d\x00\x00\x00'
p620
tp621
Rp622
ag1
(S'\x07l\x01\x01\x12\x0e\x15\x00\x00\x00'
p623
tp624
Rp625
ag1
(S'\x07l\x01\x01\x12\x1e$\x00\x00\x00'
p626
tp627
Rp628
ag1
(S"\x07l\x01\x01\x12'+\x00\x00\x00"
p629
tp630
Rp631
ag1
(S'\x07l\x01\x01\x122\x1d\x00\x00\x00'
p632
tp633
Rp634
ag1
(S'\x07l\x01\x01\x129\x00\x00\x00\x00'
p635
tp636
Rp637
ag1
(S'\x07l\x01\x01\x13\x01\x16\x00\x00\x00'
p638
tp639
Rp640
ag1
(S'\x07l\x01\x01\x13\n(\x00\x00\x00'
p641
tp642
Rp643
ag1
(S'\x07l\x01\x01\x13\x0f&\x00\x00\x00'
p644
tp645
Rp646
ag1
(S'\x07l\x01\x01\x13\x155\x00\x00\x00'
p647
tp648
Rp649
ag1
(S'\x07l\x01\x01\x13\x1c\n\x00\x00\x00'
p650
tp651
Rp652
ag1
(S'\x07l\x01\x01\x13\x1f\x16\x00\x00\x00'
p653
tp654
Rp655
ag1
(S'\x07l\x01\x01\x13&\x01\x00\x00\x00'
p656
tp657
Rp658
ag1
(S'\x07l\x01\x01\x132\x13\x00\x00\x00'
p659
tp660
Rp661
ag1
(S'\x07l\x01\x01\x14\x07\x1f\x00\x00\x00'
p662
tp663
Rp664
ag1
(S'\x07l\x01\x01\x14\x1b\x08\x00\x00\x00'
p665
tp666
Rp667
ag1
(S'\x07l\x01\x01\x14$\x1f\x00\x00\x00'
p668
tp669
Rp670
ag1
(S'\x07l\x01\x01\x15\t\x19\x00\x00\x00'
p671
tp672
Rp673
ag1
(S'\x07l\x01\x01\x15\x16\r\x00\x00\x00'
p674
tp675
Rp676
ag1
(S'\x07l\x01\x01\x15\x1e\x1d\x00\x00\x00'
p677
tp678
Rp679
ag1
(S'\x07l\x01\x01\x15/\x1a\x00\x00\x00'
p680
tp681
Rp682
ag1
(S'\x07l\x01\x01\x16#\x0f\x00\x00\x00'
p683
tp684
Rp685
ag1
(S'\x07l\x01\x01\x161\x05\x00\x00\x00'
p686
tp687
Rp688
ag1
(S"\x07l\x01\x01\x17\n'\x00\x00\x00"
p689
tp690
Rp691
ag1
(S'\x07l\x01\x01\x174\x17\x00\x00\x00'
p692
tp693
Rp694
a(dp695
I3
(lp696
F0.23025850929940456
aF0.3218875824868201
aF0.3611918412977808
aF0.3611918412977808
aF0.3611918412977808
aF0.3611918412977808
aF0.3611918412977808
aF0.3611918412977808
aF0.3611918412977808
aF0.3611918412977808
aF0.5147307765847575
aF0.5891949984776147
aF0.6728038159038567
aF0.705781738244398
aF0.5704426869262704
aF0.38455659412110965
aF0.3611918412977808
aF0.3611918412977808
aF0.3611918412977808
aF0.3611918412977808
aF0.3611918412977808
aF0.3611918412977808
aF0.3611918412977808
aF0.3611918412977808
aF0.3611918412977808
aF0.3611918412977808
aF0.3611918412977808
aF0.3611918412977808
aF0.3611918412977808
aF0.3611918412977808
aF0.3611918412977808
aF0.3611918412977808
aF0.3611918412977808
aF0.3611918412977808
aF0.3611918412977808
aF0.3611918412977808
aF0.3611918412977808
aF0.3611918412977808
aF0.3611918412977808
aF0.3611918412977808
aF0.3611918412977808
aF0.3611918412977808
aF0.3611918412977808
aF0.3611918412977808
aF0.3611918412977808
aF0.3611918412977808
aF0.3611918412977808
aF0.3611918412977808
aF0.3611918412977808
aF0.3611918412977808
aF0.3611918412977808
aF0.3611918412977808
aF0.3611918412977808
aF0.3611918412977808
aF0.3611918412977808
aF0.3611918412977808
aF0.3611918412977808
aF0.3611918412977808
aF0.3611918412977808
aF0.3611918412977808
aF0.3611918412977808
aF0.3611918412977808
aF0.3611918412977808
aF0.3611918412977808
aF0.3611918412977808
aF0.3611918412977808
aF0.3611918412977808
aF0.3611918412977808
aF0.3611918412977808
aF0.3611918412977808
aF0.3611918412977808
aF0.3611918412977808
aF0.3611918412977808
aF0.3611918412977808
aF0.3611918412977808
aF0.3611918412977808
aF0.3611918412977808
aF0.3611918412977808
aF0.3611918412977808
aF0.3611918412977808
aF0.3611918412977808
aF0.3611918412977808
aF0.3611918412977808
aF0.3611918412977808
aF0.3611918412977808
aF0.3611918412977808
aF0.3611918412977808
aF0.3611918412977808
aF0.3611918412977808
aF0.3611918412977808
aF0.3611918412977808
aF0.3611918412977808
aF0.3611918412977808
aF0.3611918412977808
aF0.3611918412977808
aF0.3611918412977808
aF0.3611918412977808
aF0.3611918412977808
aF0.3611918412977808
aF0.3611918412977808
aF0.3611918412977808
aF0.3611918412977808
aF0.3611918412977808
aF0.3611918412977808
aF0.3611918412977808
aF0.3611918412977808
aF0.3611918412977808
aF0.3611918412977808
aF0.3611918412977808
aF0.3611918412977808
aF0.3611918412977808
aF0.3611918412977808
aF0.3611918412977808
aF0.3611918412977808
aF0.3611918412977808
aF0.3611918412977808
aF0.3611918412977808
aF0.3611918412977808
aF0.3611918412977808
aF0.3611918412977808
aF0.3611918412977808
aF0.3611918412977808
aF0.3611918412977808
aF0.3611918412977808
aF0.3611918412977808
aF0.3611918412977808
aF0.3611918412977808
aF0.3611918412977808
aF0.3611918412977808
aF0.3611918412977808
aF0.3611918412977808
aF0.3611918412977808
aF0.3611918412977808
aF0.3611918412977808
aF0.3611918412977808
aF0.3611918412977808
aF0.3611918412977808
aF0.3611918412977808
aF0.3611918412977808
aF0.3611918412977808
aF0.3611918412977808
aF0.3611918412977808
aF0.3611918412977808
aF0.3611918412977808
aF0.3611918412977808
aF0.3611918412977808
aF0.3611918412977808
aF0.3611918412977808
aF0.3611918412977808
aF0.3611918412977808
aF0.3611918412977808
aF0.3611918412977808
aF0.3611918412977808
aF0.3611918412977808
aF0.3611918412977808
aF0.3611918412977808
aF0.3611918412977808
aF0.3611918412977808
aF0.3611918412977808
aF0.3611918412977808
aF0.3611918412977808
aF0.3611918412977808
aF0.3611918412977808
aF0.3611918412977808
aF0.3611918412977808
aF0.3611918412977808
aF0.3611918412977808
aF0.3611918412977808
aF0.3611918412977808
aF0.3611918412977808
aF0.3611918412977808
aF0.3611918412977808
aF0.3611918412977808
aF0.3611918412977808
aF0.3611918412977808
aF0.3611918412977808
aF0.3611918412977808
aF0.3611918412977808
aF0.3611918412977808
aF0.3611918412977808
aF0.3611918412977808
aF0.3611918412977808
aF0.3611918412977808
aF0.3611918412977808
aF0.3611918412977808
aF0.3611918412977808
aF0.3611918412977808
aF0.3611918412977808
aF0.3611918412977808
aF0.3611918412977808
aF0.3611918412977808
aF0.3611918412977808
aF0.3611918412977808
aF0.3611918412977808
aF0.3611918412977808
aF0.3611918412977808
aF0.3611918412977808
aF0.3611918412977808
aF0.3611918412977808
aF0.3611918412977808
aF0.3611918412977808
aF0.3611918412977808
aF0.3611918412977808
aF0.3611918412977808
aF0.3611918412977808
aF0.3611918412977808
aF0.3611918412977808
aF0.3611918412977808
aF0.3611918412977808
aF0.3611918412977808
aF0.3611918412977808
aF0.3611918412977808
aF0.3611918412977808
aF0.3611918412977808
aF0.3611918412977808
aF0.3611918412977808
aF0.3611918412977808
aF0.3611918412977808
aF0.3611918412977808
aF0.3611918412977808
aF0.3611918412977808
aF0.3611918412977808
aF0.3611918412977808
aF0.3611918412977808
aF0.3611918412977808
aF0.3611918412977808
aF0.3611918412977808
aF0.3611918412977808
aF0.3611918412977808
aF0.3611918412977808
aF0.3611918412977808
asI4
(lp697
F0.24894480585888243
aF0.4581866785021159
aF0.5164919221659116
aF0.5135594671975857
aF0.4291623970571642
aF0.4337244447985377
aF0.5270754873279756
aF0.6324055430623492
aF0.6137915466928963
aF0.5075122186956097
aF0.8185719719571308
aF1.0692147598908892
aF1.115511264273987
aF1.1050952074609746
aF0.9872044465906299
aF0.6777163650926724
aF0.6328848476087796
aF0.6180819745102167
aF0.6185139052777899
aF0.5968801844535031
aF0.5896246927178399
aF0.5514073309566455
aF0.5264295140181271
aF0.4668451151128119
aF0.44001585866851034
aF0.43336512592972753
aF0.4385193326638691
aF0.45813751381990836
aF0.4856995535641061
aF0.5132183640455853
aF0.4951975801346604
aF0.47084324189072674
aF0.45850469588710785
aF0.4935576789104809
aF0.4999581791020876
aF0.5115909440224286
aF0.48769948475863695
aF0.5114119714017148
aF0.49318228698135774
aF0.5332807904588097
aF0.5481887138036892
aF0.5558140256603203
aF0.5485387748075
aF0.5508319972114348
aF0.5796734103873693
aF0.6358616122116381
aF0.6321712468658083
aF0.6519671929727929
aF0.578786742119323
aF0.590348155876841
aF0.5415441131116615
aF0.5777151843754682
aF0.5927346204898302
aF0.5996897813354961
aF0.5927600439026999
aF0.5749486641883035
aF0.5599007089761401
aF0.5573857228764346
aF0.5399764228094408
aF0.5837153929660552
aF0.5910460468774347
aF0.6213755273399573
aF0.5834227198971772
aF0.5658532609936503
aF0.5105910529461983
aF0.5185417569860062
aF0.5169606168508352
aF0.5315855168773692
aF0.5714772947594802
aF0.6238861215320075
aF0.5949177900631726
aF0.5860720707969828
aF0.538306892707032
aF0.6486067578791095
aF0.659868782888149
aF0.6718501925326222
aF0.6002282251094505
aF0.4991043049674215
aF0.4887573179329284
aF0.5300585677913717
aF0.542670020155758
aF0.5497598337219713
aF0.5365667788435965
aF0.5111489118244839
aF0.4847293651686392
aF0.4663265485704269
aF0.4771477536146164
aF0.4707865100170504
aF0.43436317792734114
aF0.4369816458743883
aF0.4546472522440424
aF0.4614048201406812
aF0.4735618455171058
aF0.44478909580544007
aF0.4439099910448528
aF0.4347375058256316
aF0.4450551342560394
aF0.4571831342582055
aF0.4388911883792728
aF0.44608491743720374
aF0.46842524161327764
aF0.4808406905574775
aF0.48624310595326
aF0.4612038434695368
aF0.4588973962880637
aF0.4735309035940484
aF0.45844503972989076
aF0.446991872801987
aF0.4140129670000813
aF0.4181208277562559
aF0.43037005919022664
aF0.43080947337036263
aF0.4414531321495423
aF0.43024980948206515
aF0.4436864789784996
aF0.45899014005912836
aF0.4818421726838442
aF0.44754959278583495
aF0.44175929739003506
aF0.4250703360357426
aF0.45918677366147137
aF0.4448711340938717
aF0.43792409131310805
aF0.40568493251527143
aF0.42231209140002257
aF0.42371232116169333
aF0.4573770681207553
aF0.45894982511694477
aF0.4904052363659306
aF0.48530471001094944
aF0.5019360339413482
aF0.5064182321686053
aF0.5110399674189715
aF0.519833109656042
aF0.5061957858487807
aF0.48516088827731685
aF0.4803880978368695
aF0.4731572394707725
aF0.49944719125319514
aF0.4734803862168215
aF0.47886241227993553
aF0.4653606388613563
aF0.5049951980702725
aF0.5015928666290808
aF0.5024620619887791
aF0.47536242588207267
aF0.501048025695222
aF0.4984085129967999
aF0.5035243170750796
aF0.4811138372980159
aF0.5050445509711552
aF0.49108943793320214
aF0.5562339731255381
aF0.5476854172450968
aF0.5606387033147235
aF0.5204761174469988
aF0.5459887518173743
aF0.5599821624651785
aF0.5710306922415964
aF0.5767607496853624
aF0.5759580364759683
aF0.575897554525196
aF0.5490506920012385
aF0.5674444236515984
aF0.5904312545445476
aF0.6168701905790883
aF0.5869949606574112
aF0.5428151306624648
aF0.5165976037466008
aF0.4995297480612309
aF0.5107603383705902
aF0.49542924743892097
aF0.5247014331776652
aF0.49452359325387873
aF0.47905477438018945
aF0.4602752209261866
aF0.4819321360551925
aF0.48384311416591935
aF0.5101393617912281
aF0.4984251957864505
aF0.5000149701877512
aF0.4541759688547337
aF0.44953092807085476
aF0.4492002218591497
aF0.45828352035353903
aF0.4778840750273405
aF0.4805188543152768
aF0.4835831753296685
aF0.4796177534205784
aF0.4565245978121665
aF0.4648346915056667
aF0.43591381402838836
aF0.44097062992095254
aF0.4226475061986855
aF0.4616128223943055
aF0.4819744954903259
aF0.479156405671546
aF0.47930163784045565
aF0.47999772632235843
aF0.5260248736680316
aF0.5438712821018782
aF0.531723403579143
aF0.49379613327366695
aF0.4239857947438538
aF0.42884752423783545
aF0.4433075569574574
aF0.4592214375653157
aF0.449444576914511
aF0.4336288357964434
aF0.42159306412974784
aF0.42159306412974784
aF0.4157797621426938
aF0.41234114571406116
aF0.406693667529166
aF0.384026385765677
aF0.37828742535168003
aF0.37828742535168003
aF0.3752858718965905
aF0.37828742535168003
aF0.40065946330498486
aF0.42385617762946187
aF0.44030764930743416
aF0.43302301757858025
aF0.44431037007636565
aF0.43534070065419245
aF0.4255170766373102
aF0.39719524901370906
aF0.45044341360510803
aF0.45628801474917774
aF0.4790736058907255
aF0.46335055376641704
asI5
(lp698
F0.7567944090882013
aF1.4377985860959042
aF2.1940596742994503
aF2.1953597681365693
aF2.2559624247751358
aF2.2531753340345273
aF2.175395149307257
aF2.168805042932012
aF2.1766030492897124
aF2.223944156125924
aF1.9632071186392064
aF1.3352466872903508
aF0.6558791173830333
aF1.0365613124160615
aF1.6736092993345657
aF2.2096632404394283
aF2.2622122726780134
aF2.2689969329035007
aF2.271259824515354
aF2.268064665217103
aF2.2703832272646203
aF2.276247143081548
aF2.2802707378626335
aF2.2802707378626335
aF2.2802707378626335
aF2.2795775906820737
aF2.277929672249071
aF2.2781912963209536
aF2.274860848720428
aF2.2755539959009883
aF2.274895459454949
aF2.267794088612554
aF2.2703050532629114
aF2.2689187589017923
aF2.2742023122743893
aF2.271259824515354
aF2.271952971695914
aF2.276247143081548
aF2.2802707378626335
aF2.2755539959009883
aF2.271259824515354
aF2.268064665217103
aF2.276247143081548
aF2.270566677334794
aF2.2650028723205624
aF2.2464917660441905
aF2.2531542116440333
aF2.2546242921819153
aF2.2689969329035007
aF2.240188987674064
aF2.247862719413112
aF2.2491999010213424
aF2.258090028084715
aF2.271259824515354
aF2.2689969329035002
aF2.2696900800840605
aF2.2666783708559834
aF2.2673715180365432
aF2.2696900800840605
aF2.2632818564222257
aF2.261519125497454
aF2.255801478271007
aF2.2689969329035007
aF2.2735091650938295
aF2.2742023122743893
aF2.271259824515354
aF2.270566677334794
aF2.2755539959009883
aF2.2532379978207966
aF2.231038660473126
aF2.243111366716946
aF2.2651913989271106
aF2.2768050019598336
aF2.2618955620611056
aF2.2615191254974536
aF2.2615191254974536
aF2.271259824515354
aF2.2755539959009883
aF2.276111854779274
aF2.2742023122743893
aF2.2703832272646203
aF2.2680646652171035
aF2.27276690516038
aF2.2755539959009883
aF2.276247143081548
aF2.2774981491403934
aF2.2774981491403934
aF2.2734745543593085
aF2.2741677015398687
aF2.2755539959009883
aF2.278622819429631
aF2.2774981491403934
aF2.276247143081548
aF2.2774981491403934
aF2.2795775906820737
aF2.2802707378626335
aF2.278884443501514
aF2.2755539959009883
aF2.2768050019598336
aF2.276247143081548
aF2.278622819429631
aF2.2774981491403934
aF2.268225611721232
aF2.2671009414319943
aF2.267794088612554
aF2.277929672249071
aF2.2755539959009883
aF2.2755539959009883
aF2.278622819429631
aF2.2802707378626335
aF2.2795775906820737
aF2.2786228194296316
aF2.2774981491403934
aF2.2795775906820737
aF2.277929672249071
aF2.2768050019598336
aF2.2755539959009883
aF2.278622819429631
aF2.278622819429631
aF2.278622819429631
aF2.276247143081548
aF2.278622819429631
aF2.278622819429631
aF2.2802707378626335
aF2.2802707378626335
aF2.2802707378626335
aF2.278884443501514
aF2.2768050019598336
aF2.2768050019598336
aF2.2774981491403934
aF2.2774981491403934
aF2.276247143081548
aF2.2741677015398682
aF2.276111854779274
aF2.277929672249071
aF2.2788844435015134
aF2.277929672249071
aF2.2779296722490714
aF2.2755539959009883
aF2.2774981491403934
aF2.278622819429631
aF2.2795775906820737
aF2.2768050019598336
aF2.2742023122743893
aF2.2755539959009883
aF2.276247143081548
aF2.2734600523409396
aF2.259986019556222
aF2.2595971087297415
aF2.2623841994703495
aF2.278622819429631
aF2.2795775906820737
aF2.2774981491403934
aF2.2734600523409396
aF2.2696900800840605
aF2.2755539959009883
aF2.276111854779274
aF2.2742023122743893
aF2.2664167467841008
aF2.266389166681682
aF2.2689969329035002
aF2.2734600523409396
aF2.274895459454949
aF2.27276690516038
aF2.270566677334794
aF2.262065461097901
aF2.2512793425630218
aF2.2546242921819166
aF2.2568245200075028
aF2.2712598245153544
aF2.269873530154234
aF2.2639750036027855
aF2.2639750036027855
aF2.271952971695914
aF2.2795775906820737
aF2.2802707378626335
aF2.2802707378626335
aF2.278622819429631
aF2.2734600523409396
aF2.2703832272646203
aF2.271952971695914
aF2.276247143081548
aF2.2788844435015134
aF2.2740324132375935
aF2.2677940886125545
aF2.2712598245153544
aF2.2734600523409396
aF2.271952971695914
aF2.271952971695914
aF2.276247143081548
aF2.278622819429631
aF2.2795775906820737
aF2.2788844435015134
aF2.2795775906820737
aF2.278622819429631
aF2.276247143081548
aF2.276247143081548
aF2.27276690516038
aF2.271259824515354
aF2.2643097251400026
aF2.2652920764948634
aF2.2659852236754237
aF2.270566677334794
aF2.274895459454949
aF2.2742023122743893
aF2.2734600523409396
aF2.270566677334794
aF2.2739060774679856
aF2.270474952299707
aF2.2718266359263057
aF2.265962720109378
aF2.2609407908086636
aF2.2647412482486797
aF2.2696119060823516
aF2.2788844435015134
aF2.2788844435015134
aF2.2788844435015134
aF2.2795775906820737
aF2.2788844435015134
aF2.2739060774679856
aF2.2615371364177626
aF2.254199693850364
aF2.260984354075851
aF2.2499055224647297
aF2.254740952914437
aF2.2593589392088935
aF2.2747255604181538
aF2.2487257656304673
aF2.240129669722677
aF2.2223034002667683
aF2.237559195921861
asI6
(lp699
F0.24894480585888243
aF0.458186678502116
aF0.45131306953759587
aF0.345968471322518
aF0.38024129089964404
aF0.379681681291968
aF0.4464581787683876
aF0.5225612397411047
aF0.3932368198464349
aF0.3854135211809806
aF0.5808765534362625
aF0.47141676382532094
aF0.3221916769632204
aF0.5577093641550354
aF0.5426852232068055
aF0.5055879321207042
aF0.4953207213122642
aF0.4928839765116183
aF0.49121430852093023
aF0.47550288902617616
aF0.46196265570543327
aF0.44692749005491494
aF0.4063743587741576
aF0.37498920406414726
aF0.36756692470603386
aF0.37404237167002985
aF0.3735000056227802
aF0.39290609916994296
aF0.4186028305102151
aF0.429562723710818
aF0.401971367759594
aF0.3721712785589289
aF0.3959522131259616
aF0.4246148497329789
aF0.4139434425035211
aF0.4155873862425549
aF0.4126418949155039
aF0.4145808333224152
aF0.4207743205984464
aF0.43451106229853
aF0.4653632855849022
aF0.44613189509209467
aF0.4378715352392408
aF0.46034050005532223
aF0.47423470997445866
aF0.5215024923842524
aF0.513270056966183
aF0.4936005424495473
aF0.47103211265483463
aF0.4448286194190781
aF0.468896917608835
aF0.4667221395755516
aF0.49486961499779875
aF0.48457638444687806
aF0.4574800090963398
aF0.47159279091661416
aF0.45664646582051943
aF0.43967044129245264
aF0.44801688911263776
aF0.4785368867138937
aF0.4882341393147139
aF0.48903790663170243
aF0.4721150393605865
aF0.4262181716149119
aF0.41965516287909826
aF0.4260612796750874
aF0.4389376487218075
aF0.4356968956346925
aF0.47855776901863134
aF0.5205589451239726
aF0.45162506804210256
aF0.4424610765304042
aF0.47065923112068764
aF0.5174969572479377
aF0.5409996920732637
aF0.5147808572365304
aF0.43611085897481505
aF0.3865207432367328
aF0.4106147928282562
aF0.4573588219856028
aF0.443152328439537
aF0.433272074626441
aF0.4504323587737533
aF0.4039874614395024
aF0.37761294301234516
aF0.4107731852890202
aF0.3950687384416048
aF0.3808970273809403
aF0.3705004409322954
aF0.36229102455347717
aF0.4015704792205348
aF0.3992721086165951
aF0.382627930498351
aF0.3829223403168747
aF0.36390549187446974
aF0.37362062268344426
aF0.38410834474445027
aF0.38597288011724484
aF0.36828428715402267
aF0.37362062268344426
aF0.4130470655800756
aF0.40470884942204505
aF0.3933690697375246
aF0.3943755912610448
aF0.3745456673045601
aF0.40538567017052546
aF0.39326697501333796
aF0.3468315175398733
aF0.3675843935793899
aF0.36516183878149605
aF0.36045404935251746
aF0.37703292784879183
aF0.3842188065265545
aF0.3706316721470044
aF0.38450673527469087
aF0.4046086681795594
aF0.3983500042983835
aF0.37488629998390005
aF0.3700304310928039
aF0.3776468170986743
aF0.3857693823904364
aF0.383846720672568
aF0.35382075624026343
aF0.3475451969510127
aF0.3671022015715132
aF0.37178140098226736
aF0.38426488568072925
aF0.40090543706853926
aF0.40624321559378024
aF0.4147793132031123
aF0.41724980669392564
aF0.4262928153752839
aF0.42184235349278465
aF0.4327333429631983
aF0.4203358638300638
aF0.38133869617207566
aF0.40452113206669005
aF0.4080419635652264
aF0.4038279848861301
aF0.4049689119124817
aF0.3873747457997404
aF0.3957613067743602
aF0.42944335319371796
aF0.4226706964935735
aF0.392557409463111
aF0.4079015892316966
aF0.4217595734331003
aF0.41397252105531357
aF0.40714930813946054
aF0.40614176147183784
aF0.41702279335656434
aF0.4158256621717491
aF0.45720843435863023
aF0.4685727942520131
aF0.41863750103022856
aF0.431719573270036
aF0.4555758872051156
aF0.4606919981904989
aF0.457811018134568
aF0.4717784994250747
aF0.4638160885560803
aF0.4630597289896179
aF0.44879486129857304
aF0.4605179207123386
aF0.4978152733243857
aF0.49180360488369257
aF0.4541486506919672
aF0.4201151672083722
aF0.428941501338618
aF0.4101800135733967
aF0.4161110637520928
aF0.43010469630800063
aF0.43027763765398785
aF0.41801998973086046
aF0.38859490093964916
aF0.40355593833082476
aF0.41818558797099686
aF0.4023693355577206
aF0.4230878474561654
aF0.42617160497161527
aF0.3896976353322922
aF0.3799524018109558
aF0.37655755140423136
aF0.38417020553022907
aF0.38825201744109183
aF0.40539730021079057
aF0.4080860700133483
aF0.39170779819284823
aF0.40503000095603375
aF0.381836557812012
aF0.38071482767263953
aF0.39247853338673255
aF0.3558655870474223
aF0.3692515003958138
aF0.40678807039816267
aF0.4133667684664152
aF0.38533489373137536
aF0.40160059625598243
aF0.4138493156324633
aF0.4347677785064175
aF0.4642770408509598
aF0.4249010634848703
aF0.3781220666704824
aF0.35908730329657673
aF0.35796263300733905
aF0.39540305112837015
aF0.3901143653079329
aF0.3626162738351185
aF0.3715008222075726
aF0.365367081714588
aF0.3482037333970517
aF0.3659190062730317
aF0.36062275965052415
aF0.3415030861372137
aF0.3382746349486805
aF0.3291831404686597
aF0.33616959142178016
aF0.341764710209096
aF0.33267699408658435
aF0.35627210229213957
aF0.3775550565025769
aF0.37289474485013063
aF0.36605726143029355
aF0.3807599405426968
aF0.37576052524641573
aF0.345968471322518
aF0.3436056012123725
aF0.3988913738682131
aF0.4014406810686928
aF0.37915150837107725
aF0.40520953412599414
asI7
(lp700
F0.24894480585888246
aF0.6160622563603606
aF0.6533587079368739
aF0.4790689017143187
aF0.564460631262054
aF0.4163387130186979
aF0.5614128182468502
aF0.6161740961294749
aF0.41950420919427495
aF0.4486153607619686
aF1.0019444983456762
aF1.4510114896235233
aF1.5239809431381952
aF1.2495585483607796
aF0.7911863873748672
aF0.6994026100867575
aF0.7841959083183695
aF0.8215918874562741
aF0.8459523863348507
aF0.8425629161148607
aF0.855872929936244
aF0.7803181707909244
aF0.7445556959370935
aF0.74032337766553
aF0.7762779902753604
aF0.7778071410607372
aF0.7629162726977773
aF0.7191260821306564
aF0.7461402431795768
aF0.7828981389942304
aF0.7615308863500384
aF0.7736707838380652
aF0.7886341511028344
aF0.7810036143102563
aF0.7539890539225504
aF0.7501942088512781
aF0.788584093888208
aF0.7892716850624452
aF0.7787234978775924
aF0.7811757946929061
aF0.8313531336976252
aF0.806481314878288
aF0.7741044204712841
aF0.7691135104244202
aF0.7730678160392045
aF0.8429750935110116
aF0.7779188122057243
aF0.7743164562217635
aF0.7472082881341179
aF0.6774997224841821
aF0.6187355505105478
aF0.6349054969237152
aF0.7309856288630935
aF0.6772004084839359
aF0.6701662136977007
aF0.7353553475229917
aF0.6836872532923053
aF0.6966179250503425
aF0.7103597663465575
aF0.6879260688485469
aF0.7078074684178834
aF0.7058565464677042
aF0.6824244901018345
aF0.6622357625407537
aF0.6991538690352604
aF0.7366769200965834
aF0.7478980860411545
aF0.7257623776660473
aF0.757968600859917
aF0.7771118708381237
aF0.6852932920830964
aF0.7092455564946152
aF0.7303715396996241
aF0.8527291374240502
aF0.896457422628031
aF0.8016722318007089
aF0.6737047503307186
aF0.635028203998164
aF0.6739449405400415
aF0.707073622362445
aF0.7029888348638459
aF0.7000691648037685
aF0.6932915355928991
aF0.6915474158255231
aF0.6393042907843862
aF0.7121302416104167
aF0.7250512690139591
aF0.678612955775169
aF0.6968391581590241
aF0.686404364316837
aF0.7322926757712638
aF0.7205289374144994
aF0.6593276261122863
aF0.6244692854682035
aF0.7081184850476979
aF0.7086687420714451
aF0.7476015314547124
aF0.7402708324056482
aF0.7179765060923744
aF0.7451977508489019
aF0.7625651295973452
aF0.7505695308532709
aF0.7775802769145121
aF0.7752593560404341
aF0.7593893930965914
aF0.7627739776454
aF0.7269830998196425
aF0.7014627708762031
aF0.764435462099938
aF0.7870066357146471
aF0.7069509459515904
aF0.7160262098136712
aF0.7537021421020671
aF0.7157743897159522
aF0.7467690370551557
aF0.7696185787306823
aF0.8185011826921326
aF0.772940210206965
aF0.7076028162519244
aF0.7687353538371391
aF0.773975918246375
aF0.7611200289597047
aF0.6921743620409424
aF0.6942350660413426
aF0.7579066998666509
aF0.783648363367892
aF0.8048408469206692
aF0.7793194258574239
aF0.730598629291295
aF0.7296023767338596
aF0.7471983646261577
aF0.7266399458491695
aF0.7098876023526477
aF0.7701183359238195
aF0.7617772421911858
aF0.7362213766419407
aF0.7247963169270526
aF0.7049991191962072
aF0.6818549275482283
aF0.6844577232348379
aF0.7447459108858291
aF0.741789228961025
aF0.7630934605817145
aF0.7706478723348288
aF0.7171536589432876
aF0.7478635569558347
aF0.7410773729488661
aF0.7056129582021925
aF0.7320752952659055
aF0.7246571310125618
aF0.7351688459901375
aF0.7317387819805801
aF0.7648317434639095
aF0.7756955358960239
aF0.6872376438926794
aF0.6661693292824221
aF0.718476305474967
aF0.7219432325794589
aF0.7009526644301677
aF0.7541128717562865
aF0.7292096122356153
aF0.7067451768568969
aF0.7325685629966796
aF0.7560207955167777
aF0.7969143410544547
aF0.8099192148244374
aF0.7855205556530606
aF0.7168477046861926
aF0.7456579753058442
aF0.7407463200916697
aF0.7266436728649729
aF0.7310304236118225
aF0.7153464490675024
aF0.6838096869589461
aF0.6929112020743191
aF0.6128097830734451
aF0.6099282104476829
aF0.6821516530984499
aF0.753758990414461
aF0.751873550035376
aF0.7307731568248209
aF0.7561724839834529
aF0.7448839193051158
aF0.7265187197495294
aF0.7453114528089737
aF0.7034797649721733
aF0.6522543633862505
aF0.6355542594170666
aF0.6535886639942792
aF0.5890677917674483
aF0.5928002097171733
aF0.6238803552563194
aF0.585116871190765
aF0.6634817220729949
aF0.7184107996845527
aF0.7308888943917146
aF0.7217151805882722
aF0.7463982195905156
aF0.7308987770462403
aF0.6608014624200135
aF0.6654252230580326
aF0.6768712943721165
aF0.6075363412825759
aF0.6128236724248699
aF0.6023801603699097
aF0.649541081947931
aF0.6545268038988962
aF0.544028022752513
aF0.585056689521022
aF0.62103800027239
aF0.5577383554626794
aF0.5059873321133266
aF0.4927560532284877
aF0.4617379399664744
aF0.47102920941056475
aF0.4536022829574974
aF0.4673360670555614
aF0.4712919757036733
aF0.46630522864448026
aF0.4902812994759447
aF0.4638807223819382
aF0.5060412723200832
aF0.4254484671582416
aF0.47011903646608527
aF0.4968028755402415
aF0.3454106124442325
aF0.34334397714049025
aF0.5302435577203889
aF0.43949045413122195
aF0.38205735764005105
aF0.5372297454258196
asI8
(lp701
F0.4429001028027907
aF0.8830823721868821
aF0.9236183896786964
aF0.7803259084034131
aF0.7589940173644435
aF0.8500023585440937
aF0.9052043579223509
aF0.7175390306521843
aF0.4278092216785213
aF0.4508847528445145
aF0.7267110719266042
aF0.5487104177004632
aF0.3221916769632204
aF0.7037690475335973
aF0.951939643195227
aF0.9704717379232067
aF0.9490788261836172
aF0.9618758566297771
aF1.0029871501150551
aF1.0290243838852648
aF0.9999720009107537
aF0.8569055156695884
aF0.8936880094924502
aF0.8278100607192594
aF0.9024040540522632
aF0.8973404103604826
aF0.8544111478645315
aF0.8029920799920356
aF0.9075937295306817
aF0.9706486932146227
aF0.9623404964825797
aF0.9538418430508241
aF0.971735328132551
aF0.9432418735487106
aF0.91380061684446
aF0.9204804795861774
aF0.9514046268157141
aF0.937176671636593
aF0.8714236920664786
aF0.9165712380181468
aF1.002945214294777
aF0.9873473717552336
aF0.9360512255132704
aF0.9100722111464816
aF0.9496060301998434
aF1.0122546663535719
aF0.9851740061776908
aF0.9285880593723552
aF0.9284246808719007
aF0.9364092337519706
aF0.917124796304764
aF0.8798950958134486
aF0.983149303408761
aF0.9580781952481957
aF0.9829410175666771
aF0.9634754985881385
aF0.8942314519508043
aF0.9068980871017992
aF0.9408496927381804
aF0.9679474452809524
aF0.9762972457170567
aF0.9256809497890409
aF0.8719984909701048
aF0.8997146965276172
aF0.9139040021198607
aF0.9174212013350738
aF0.9207443405267297
aF0.8868251668013097
aF0.9292638505948095
aF0.9882565570223288
aF0.9512108833809089
aF0.9454051656322751
aF0.9717793560485072
aF1.0024358724361895
aF1.0187970889756386
aF0.9431960029578731
aF0.824783489442349
aF0.7083228424577105
aF0.807728825989857
aF0.8912911663377243
aF0.9061175693624784
aF0.8554932059651577
aF0.8519945678248241
aF0.7876465961865228
aF0.7068231295298166
aF0.9131456610093783
aF0.8555044493363344
aF0.8149172694721387
aF0.7318912716425147
aF0.7189841998225774
aF0.8435135299382435
aF0.8213656224293998
aF0.727162088397887
aF0.8425619666025098
aF0.8402894922233348
aF0.7950752499587299
aF0.8672218415650934
aF0.9107962178688145
aF0.9490498056248494
aF0.9162059890142231
aF0.9562824157428239
aF0.9587861891856564
aF0.9505510839045841
aF0.9213992788823437
aF0.8804132650632326
aF0.9406158232669154
aF0.9040347141476393
aF0.8701235746473535
aF0.9483127331450819
aF0.9919560733004008
aF0.9197219185151153
aF0.9508463789772879
aF0.9728356757269442
aF0.8986885378980267
aF0.9533795539075676
aF0.9742847160280628
aF0.9515960072409845
aF0.8974012563224961
aF0.8929942519754495
aF0.9792055091241723
aF0.9878186238843892
aF0.9426225686186949
aF0.8744114646933051
aF0.8642142681038466
aF0.872082517556741
aF0.932876460045135
aF0.9854746567840366
aF0.9978389109750966
aF0.9569578158590191
aF0.9467461237651564
aF0.9365052945219191
aF1.0043434832647837
aF0.9764369790088613
aF0.9651437512388474
aF0.923421343356884
aF0.8776481476896935
aF0.9487829293261754
aF0.9371901433850259
aF0.8902125293911218
aF0.8528488477904554
aF0.8375365392756657
aF0.9267324069947608
aF0.9850701773344651
aF0.954578749699774
aF0.9011184540616969
aF0.9321868628161895
aF0.9427622497408625
aF0.9573258007412037
aF0.9058415065968586
aF0.8727686634110527
aF0.9358355450737595
aF0.8924399453513427
aF0.9301359381694383
aF0.9752929943240611
aF0.8858226702738974
aF0.8799309067403509
aF0.9652958054445787
aF0.9361717281553096
aF0.944622120356447
aF0.9427777345157794
aF0.8867217645421658
aF0.9550737221617522
aF0.9608988318220306
aF0.975609247630803
aF0.9964595785970192
aF1.0510033628574063
aF0.9990179188364045
aF0.9173395052313313
aF0.9241597240446539
aF1.00695668703339
aF0.9974528960006039
aF0.965530138560319
aF0.9492949268035877
aF0.8748636708978342
aF0.7946557314253198
aF0.7592212995966587
aF0.8804053045811367
aF0.8987969199625498
aF0.9161173797978611
aF0.9409632984861411
aF0.9309660014427591
aF0.8820665158064205
aF0.8502032347012713
aF0.8521679999623158
aF0.9498690883505335
aF0.916413642175653
aF0.7898485506048548
aF0.8594992709845569
aF0.8767045096176354
aF0.7488099091880878
aF0.8364331768385646
aF0.8608216553522383
aF0.7640226295780936
aF0.904707728504816
aF0.9651060286986194
aF0.9851666879074883
aF0.9236724285805896
aF0.9633649325935402
aF0.8714284806614075
aF0.7936473040407999
aF0.8435216730172375
aF0.8702316113317299
aF0.8295310795228601
aF0.7708730159445973
aF0.7479045315640042
aF0.8987780263144972
aF0.9011206989507846
aF0.913555433322758
aF0.9306975006826482
aF0.7921254951190222
aF0.6914898947894854
aF0.7498010201426025
aF0.7559059085368762
aF0.8219070958926155
aF0.8925100334425704
aF0.8660067267814066
aF0.9186802866412159
aF0.8294591102784639
aF0.7981586241460921
aF0.8676705534579109
aF0.8466702633451806
aF0.8481911846114535
aF0.8136791122215882
aF0.7707187697971177
aF0.6482319840993268
aF0.6394241462051506
aF0.8377177515486176
aF0.847846237602404
aF0.8225862048571871
aF0.9091423251384155
aF0.8617484953687953
as(dp702
(I7
I3
tp703
(lp704
F0.24894480585888246
aF0.6209649812150025
aF1.8426004187790408
aF0.7550693816310925
aF0.9244892219609606
aF0.6568218551067702
aF0.47871923336697964
aF1.4729923244139163
aF0.734362290457166
aF0.16278631433185142
aF1.6988915400040703
aF4.980238984112664
aF5.623400339939458
aF5.348977945162061
aF2.5357363618129045
aF1.8422112287973251
aF1.9930484804948352
aF2.379101107346775
aF2.464055971195947
aF2.519342512024942
aF2.5428486487855464
aF2.1495779913486057
aF2.172981199507726
aF1.8963989138135062
aF2.150744377742445
aF2.1788343099048246
aF2.1096154406830996
aF1.8860779731800472
aF1.8497157117302605
aF2.2233852252132937
aF2.1370660509680635
aF2.0244545796151137
aF2.2918220130589915
aF2.179676500364777
aF2.01714248426037
aF2.0215492869272067
aF2.177822012005752
aF2.141568438778782
aF2.2897952463575617
aF1.978458321190139
aF2.4290070381485926
aF2.5079673673808904
aF2.130630434752481
aF2.1244030614964164
aF2.1347860645810686
aF2.3371593798170367
aF2.4216522118455788
aF1.9293652634293859
aF2.4288704569799635
aF1.507773285518844
aF1.5552041588098562
aF1.292302613053434
aF1.8123156708170893
aF1.825185707204937
aF1.5948216386246288
aF1.8910330889936189
aF1.8873583118157866
aF1.6606550822331916
aF1.9814528583265376
aF1.5729047488667283
aF1.9790306439793122
aF1.8282767095764205
aF1.8788400862606942
aF1.4363271186522204
aF1.8412347769231339
aF1.8200178688633502
aF2.1248345090578495
aF1.9571050692274263
aF1.9889920430416568
aF2.2374378527929526
aF1.9872043207492136
aF1.4848051874184163
aF2.186557756534193
aF1.9027228833835554
aF2.910177667986024
aF2.5635782826419757
aF1.7817338625545942
aF1.4640625052252636
aF1.6318407237039965
aF1.786776240683169
aF2.0046599231017725
aF1.5733428635107052
aF1.7400526809719659
aF1.8548301027115015
aF1.3233081933806998
aF1.8619242815930237
aF1.9315200411537197
aF1.6340274726170414
aF1.8413908327520296
aF1.6606325862737057
aF1.8207620666227764
aF1.9781025997633215
aF1.7018388224882626
aF1.3174535084112255
aF1.5911512966754497
aF1.8064308602342318
aF1.8280754660054053
aF1.9944456021276336
aF1.9058019460290536
aF1.9476267201875825
aF2.0702479646252248
aF2.2104282176807812
aF1.873722589895753
aF2.250217055907086
aF2.0001425297551276
aF2.1748873019431594
aF2.0101614570418813
aF1.64507492360772
aF1.9015607171460573
aF2.3243538820821077
aF2.0882786703308733
aF1.4896544060605637
aF2.0953320479578528
aF1.839630379108243
aF1.8650950454167128
aF2.1649989992420253
aF2.2292301182432577
aF2.3244398090259266
aF1.7028173956268307
aF2.0269727627876892
aF2.194392943299534
aF2.1850931896100985
aF1.9155856016559585
aF1.7006284969131185
aF1.9432767462898541
aF2.116056087338038
aF2.299218095538563
aF2.36028357388771
aF1.8848189610657888
aF1.985003373202893
aF1.8623130140590347
aF2.0986269032888107
aF1.815576912746143
aF1.9382206499085821
aF2.214976485534866
aF1.9954449269703332
aF1.8768001710189353
aF1.8983857975011702
aF1.6868568116628038
aF1.7300928748526863
aF1.8719225475780519
aF2.0823316101414737
aF1.950131053472171
aF2.2310566497583695
aF1.9266698843194412
aF1.9761786870123728
aF2.0397943505115927
aF1.9192093834090227
aF1.882924221429402
aF1.9653265576175312
aF1.8935238658366753
aF2.0776532227157216
aF1.9215226646316284
aF2.3590346197915517
aF1.8821581113734411
aF1.5829042407803349
aF1.7079213229950612
aF2.0190110444073066
aF1.8311774861955772
aF1.9018073971793479
aF2.1618544202995094
aF1.7085702914014549
aF2.0355914641348134
aF1.9805857833978118
aF2.2945665298380926
aF2.404273721087941
aF2.2089025393243156
aF1.9464060724471086
aF1.9301688108386135
aF2.138770761991419
aF1.8124437980425858
aF2.006345933880684
aF1.9741953919792663
aF1.6355968979949291
aF1.7055076879027735
aF1.5463707290432716
aF1.2277562519064058
aF1.6599410963378836
aF1.7025954836192343
aF2.2049753706124546
aF1.9374915533021195
aF1.9253373035149934
aF1.9836912594781677
aF1.936438333118484
aF2.0241743051328056
aF1.850748991912689
aF1.765149962756892
aF1.3824191115972626
aF1.4248522132585952
aF1.7444785634757871
aF0.7181617150750855
aF1.722554582063878
aF1.036710912491365
aF1.5400177537783943
aF1.7925393917102526
aF2.0021882173978316
aF1.881990871510831
aF2.0185722221027254
aF2.0687904783880375
aF1.6019693691767565
aF1.696223865744097
aF1.6518784215760645
aF1.425670703288281
aF1.3958930928970363
aF1.331963735772999
aF1.347177328227625
aF1.769312522519365
aF1.0870927152932417
aF1.132486824231196
aF1.3128441972079083
aF1.1720208404142625
aF0.9242269826877763
aF0.8795755800544125
aF0.7088168405319821
aF0.6770680966536213
aF0.7441859633270891
aF0.4638317817106318
aF0.6817296518337911
aF0.7037516750605217
aF0.7558139985228418
aF0.8599266912202002
aF0.5478299121481309
aF0.6495322455150107
aF0.3703707153400543
aF0.9927444230291
aF0.1359051013786104
aF0.092032643319391
aF0.461846921210512
aF0.8239346078379902
aF0.20062525218810018
aF0.7031386423664376
as(I4
I7
tp705
(lp706
F0.24989957711132466
aF0.6378096196961683
aF1.9782145985983652
aF0.7584433924988053
aF0.9327288288738897
aF0.6978599634662294
aF0.5036120216562427
aF1.6342714718932987
aF0.7748504208697202
aF0.1648311451390103
aF1.744989157909963
aF5.114083875492987
aF5.623400339939458
aF5.36338097566789
aF2.6988623861745915
aF2.064418506510526
aF2.196098179203762
aF2.5169697337801153
aF2.5983241633130714
aF2.6534832662988053
aF2.7029507882596175
aF2.259515234018459
aF2.2515948343145187
aF1.9700628767358648
aF2.2143986339065003
aF2.190226023439996
aF2.193567092021647
aF1.9225572396234032
aF1.8966453308137694
aF2.272112384888041
aF2.2175857372731014
aF2.079101356287892
aF2.32718475446954
aF2.3013494449129857
aF2.0456979686221684
aF2.0447090823164427
aF2.281535298185243
aF2.2100339486576615
aF2.385945573273073
aF1.9988181657515054
aF2.5057327089037957
aF2.5590232929523893
aF2.175556286026441
aF2.1962322873671787
aF2.2059511878210705
aF2.441603432574021
aF2.6619936787039533
aF2.002191438277662
aF2.5351945150721393
aF1.5140050346548268
aF1.6071632785090737
aF1.3476345880544358
aF1.9674176380806885
aF1.9733153237347245
aF1.653445034040612
aF1.9664750607717114
aF1.9596698594097375
aF1.7019731254960075
aF2.0853967012552674
aF1.6476737131828114
aF2.107694161730519
aF1.9347542225774341
aF1.975760537308705
aF1.507134895108758
aF1.8908469268674393
aF1.8649882675749103
aF2.1460939334679185
aF2.0066484439890004
aF2.0258158730883364
aF2.348086042793105
aF2.112462681285756
aF1.4968165879798392
aF2.2698380344284934
aF1.9917017150599934
aF3.1481714243116974
aF2.7773319563344403
aF1.9010345353773925
aF1.5116767688509125
aF1.728222636636206
aF1.9299090333056963
aF2.1071218177993307
aF1.5903016010681466
aF1.8179078039247796
aF1.976402630504356
aF1.3265347840371473
aF1.8834268423045724
aF1.9331454560206767
aF1.6440590976958949
aF1.9248447595332614
aF1.6712134895180766
aF1.8921554117340984
aF2.05938730446174
aF1.7115772971521472
aF1.3879322280223931
aF1.659760840122474
aF1.8498000959062544
aF1.9481837018847088
aF2.1164593576161588
aF1.9705606435247587
aF1.9483198673681423
aF2.0859796068330363
aF2.2735963556163514
aF1.8872789605849116
aF2.296895423231768
aF2.049709585647224
aF2.189137225497896
aF2.0510787522415037
aF1.6470337480887354
aF1.9272590960850073
aF2.356057778205422
aF2.11639433995725
aF1.5663867626563133
aF2.130080119701487
aF1.8434711199928153
aF1.8906393048534946
aF2.1896981345454347
aF2.234837673893051
aF2.3478640161949262
aF1.7111430475113865
aF2.0900637660966077
aF2.246736814591144
aF2.256715218233362
aF1.9566142826619826
aF1.7092214381850983
aF1.9432767462898544
aF2.1224413620947766
aF2.3448663642275926
aF2.383429378643544
aF1.9140300851351273
aF2.0268369256379914
aF1.9112977442118668
aF2.129801886751399
aF1.8840436624194767
aF2.0313027970342166
aF2.2969813543935733
aF2.074948625634659
aF1.903238517883737
aF1.905349504865441
aF1.7274866428504811
aF1.82209775987079
aF1.8783582996353196
aF2.130322085456153
aF2.077158648220461
aF2.296275439366829
aF1.9605364932654636
aF2.028414419661336
aF2.083433400340212
aF2.023149898386304
aF1.9376658139756653
aF2.010112194209439
aF1.928337363174166
aF2.148635032908319
aF2.003345537859345
aF2.4914957594607143
aF1.9431605384290331
aF1.6243647666333383
aF1.7507696713565646
aF2.0625263766375777
aF1.8869822276599726
aF1.961512206590354
aF2.1961531728031902
aF1.7837745638964786
aF2.0754250583329257
aF2.011842144763991
aF2.3726817290893467
aF2.5611884614294875
aF2.423490659874436
aF2.0022366036292794
aF1.9465055194006988
aF2.187623647704269
aF1.822669152618461
aF2.0801463837161323
aF2.006945035311467
aF1.7201042801539113
aF1.7507909290875505
aF1.562128635880295
aF1.2885340049667602
aF1.806459051254581
aF1.7082850922224138
aF2.2580470050055554
aF1.9493805758125289
aF1.9323822727845863
aF2.0173581288025058
aF2.0024512440770277
aF2.0580334422276256
aF1.9094922152292064
aF1.820262050342129
aF1.4582146527904984
aF1.456116402703385
aF1.781972522495817
aF0.7377423554346019
aF1.7348854820433002
aF1.0429492371164044
aF1.5454329298265315
aF1.8472489271683628
aF2.096978061515517
aF1.9603141396488963
aF2.06327640615256
aF2.098852927443788
aF1.6599567704152753
aF1.7954730539801216
aF1.719887285307069
aF1.4436719931826656
aF1.4595294546102577
aF1.3319637357729992
aF1.3478704754081852
aF1.7784361655150933
aF1.1031749872491066
aF1.146347127463063
aF1.330032870260326
aF1.1791913755136176
aF0.9292008120985642
aF0.902120262060895
aF0.709509987712542
aF0.6833064212786608
aF0.7441859633270891
aF0.4645249288911917
aF0.6879679764588306
aF0.7037516750605217
aF0.7583160106405327
aF0.8846975262164654
aF0.5617829103608759
aF0.6606516044407068
aF0.39278143880098704
aF1.0203577393756444
aF0.14488605757986137
aF0.0939914678004067
aF0.47392470399070574
aF0.8784610293510509
aF0.21560839753608643
aF0.7346512157354674
as(I4
I8
tp707
(lp708
F0.44290010280279074
aF0.9137114942854276
aF2.8189248277004615
aF2.4652854522568792
aF1.5343223715445973
aF2.244118604227808
aF2.6144508220531595
aF2.370236188589752
aF0.8933045957228204
aF0.17195256748547572
aF1.6657847784120794
aF3.3024982906375033
aF2.2334550499912975
aF2.607807772726725
aF3.1159032112796954
aF3.2124448135284642
aF2.9774881673233344
aF3.0173225402061417
aF3.194472504660966
aF3.3347016135747136
aF3.538392059277171
aF2.58793746280954
aF2.7311356823433934
aF2.33491671732227
aF2.6902862419905955
aF2.60367958839706
aF2.647112676702074
aF2.134772770209093
aF2.4435394512567674
aF2.959434413088441
aF3.03319832030375
aF2.8578116263244002
aF3.0088141450371957
aF2.955051495810563
aF2.7757429754365255
aF2.7845499183062348
aF3.0062911611034764
aF2.707620415923644
aF2.8100835665144315
aF2.4337094227879605
aF3.1774155185832806
aF3.241272908846001
aF2.86847483495144
aF2.7573982013397402
aF2.9742823931642053
aF3.120739262231849
aF3.71256217649022
aF2.5426564319586067
aF3.224507627063988
aF2.45636606594461
aF3.1702947717329315
aF2.3480412737210394
aF3.168449831607944
aF3.1479840440735614
aF3.0304709952712447
aF3.0522603528156824
aF2.9540764705084155
aF2.534253911403294
aF2.876283509873381
aF2.8755642410667064
aF3.250505448403494
aF2.847889601611609
aF2.8308726088544254
aF2.5357794285303457
aF2.7587364417924185
aF2.6705167612553273
aF2.7599547118826
aF2.8753076970762104
aF2.4589148561026817
aF3.283925739938936
aF3.0782488494725717
aF2.6314561458011605
aF3.233581163175439
aF2.8757245357152925
aF3.6783546483643867
aF3.3231817985052956
aF2.5646622098607277
aF1.76385007780106
aF2.064704947101179
aF2.436575186081609
aF2.942694952127221
aF2.3090457359890686
aF2.4932724136181212
aF2.479841378505368
aF1.502285553219496
aF2.5644360740474896
aF2.746383810209534
aF2.0404542477051106
aF2.289603196393543
aF1.6179644514787914
aF2.3029472948496927
aF2.5435269110498746
aF1.8605812865348321
aF2.1405843937788673
aF2.663141801443953
aF2.083107167004908
aF2.2638652980539757
aF2.714699567735507
aF3.0108186847888057
aF2.726943782818938
aF2.878964913643251
aF2.9732418997142767
aF2.868124249465614
aF2.902631172281497
aF2.564499001518813
aF2.7421719994817457
aF3.0786524073921324
aF2.3095014547430264
aF2.622768777759966
aF3.1197228678957707
aF3.012391362860103
aF2.586969844691823
aF3.104199343807971
aF2.6094879872595094
aF2.790070309597848
aF3.1562513435954633
aF2.895852387051268
aF2.9542031722483415
aF2.1681915519682526
aF2.9232668169440834
aF3.216539956078127
aF3.0846755375665995
aF2.6107711282630537
aF2.43865023876554
aF2.541713765724772
aF2.5879737816462707
aF3.0688434245600997
aF3.240056333388564
aF2.9656541360179354
aF2.921228079766769
aF2.6266580065032423
aF3.265405443452515
aF3.183019071154392
aF2.8361983563765913
aF3.061696491214438
aF2.586147963665679
aF2.637199034716584
aF2.9959665896918444
aF2.668740159631734
aF2.664243698546524
aF2.243439926589599
aF2.7593596586435645
aF2.9842323185523707
aF3.2435190250526404
aF2.435603191446479
aF2.953425376368592
aF2.6057714043977613
aF3.123225474542156
aF2.655496500181347
aF2.622795803631615
aF2.737461898233478
aF2.837971489637927
aF2.504065101610924
aF3.3575957040409565
aF2.68225706534964
aF2.53179412029123
aF2.8620769697943356
aF2.9241170247032646
aF3.024987206708736
aF2.8368454085670667
aF2.798542139506566
aF2.6909817841795673
aF3.098132163109982
aF3.0023941002297674
aF3.228976765590355
aF3.5598534971483597
aF3.301391087115268
aF2.8833333802509977
aF2.5879308807452945
aF3.28647560474016
aF2.95773338370842
aF3.1313981776566377
aF2.78584907676675
aF2.896894061730035
aF2.1094916049676535
aF2.041621573204147
aF2.31461383567292
aF2.83003305916316
aF2.4134794393950947
aF2.9902017431172805
aF2.8391409746846534
aF2.739031311673419
aF2.429926688501802
aF2.3997743333824952
aF2.764264352526136
aF2.867748869007403
aF2.3340965655175374
aF2.2781723591887424
aF2.398419607342753
aF2.541445568449718
aF1.5460563094425517
aF2.914651021371627
aF1.7420769387574913
aF2.4961747435059043
aF2.848854370243182
aF3.207211741236934
aF2.786227109976896
aF2.9275553492637743
aF2.8368719479474307
aF2.107620504828202
aF2.5829557941587686
aF2.6191416856361998
aF2.2417823327803257
aF2.307070057903478
aF1.8530746752856613
aF2.2061655089896366
aF2.932067071419711
aF2.424772877542526
aF2.7304956588705425
aF2.566352768162359
aF1.3947867515662014
aF1.9465182575687643
aF1.7749299326065238
aF2.0257762220165714
aF2.6576300563506243
aF2.3598785214404105
aF2.5988490754687046
aF2.6334892174232905
aF1.8852242883708499
aF2.3166571601237718
aF2.506917753658204
aF2.0771577002743693
aF2.4441646410689213
aF1.860977610214221
aF1.8678152455251997
aF1.0300892521513942
aF2.0861319990919074
aF2.4030067663669934
aF2.1894889427494966
aF2.5480141184510634
aF2.577571191627563
as(I5
I6
tp709
(lp710
F0.7567944090882012
aF1.4583146853360593
aF4.994610931391802
aF5.6173769214833085
aF5.567891620859107
aF5.499813092055471
aF5.522272561246293
aF4.96390302619376
aF5.465168180460532
aF5.605195063174729
aF5.167301381639547
aF2.24649130126728
aF0.0
aF0.803412223739617
aF5.417662892243729
aF5.554574309440323
aF5.582359424289339
aF5.612524891219385
aF5.602935569523507
aF5.58917279324923
aF5.596148400947594
aF5.62340033993946
aF5.623400339939458
aF5.623400339939458
aF5.623400339939459
aF5.621774925072503
aF5.621081777891941
aF5.616468868133862
aF5.61438942659218
aF5.596148400947593
aF5.621774925072501
aF5.623400339939461
aF5.6227071927589
aF5.6152031908334035
aF5.616752995771788
aF5.599836070063977
aF5.596148400947594
aF5.623400339939458
aF5.623400339939458
aF5.618683597977816
aF5.573690744042695
aF5.604237082198696
aF5.6171620153144195
aF5.616638767170656
aF5.549961399682237
aF5.565306595172876
aF5.530068818300689
aF5.588479646068674
aF5.589910076322555
aF5.620099426537079
aF5.6072638986249155
aF5.597998757573655
aF5.610514728358828
aF5.595806586383526
aF5.602044911008566
aF5.601351763828006
aF5.591972330571982
aF5.591510930231984
aF5.604237082198693
aF5.599927704096557
aF5.539279062125876
aF5.5884796460686745
aF5.589910076322553
aF5.6217749250725015
aF5.616615679713973
aF5.590817783051424
aF5.600173683966006
aF5.6217749250725015
aF5.611352059162249
aF5.554526919839387
aF5.5922087168142625
aF5.62201404557834
aF5.606979713774907
aF5.599433811780087
aF5.528117971215874
aF5.6042370821986935
aF5.6105147283588295
aF5.602330749417401
aF5.623400339939458
aF5.614814449230167
aF5.5799290686677345
aF5.603543935018133
aF5.606979713774907
aF5.615203190833404
aF5.62009942653708
aF5.615203190833406
aF5.6217749250725015
aF5.617685263458184
aF5.600173683966008
aF5.6217749250725015
aF5.621774925072502
aF5.620099426537082
aF5.613218038399946
aF5.6171620153144195
aF5.623400339939459
aF5.623400339939461
aF5.621081777891942
aF5.612140086013704
aF5.608569074042439
aF5.6227071927589
aF5.615203190833406
aF5.621774925072501
aF5.621774925072504
aF5.623400339939459
aF5.623400339939458
aF5.6194062793565225
aF5.6069797137749084
aF5.615203190833403
aF5.623400339939459
aF5.62340033993946
aF5.622707192758898
aF5.615203190833405
aF5.621774925072501
aF5.623400339939457
aF5.622014045578342
aF5.606979713774906
aF5.6152031908334035
aF5.62340033993946
aF5.6227071927589
aF5.615203190833403
aF5.62009942653708
aF5.617162015314421
aF5.62340033993946
aF5.62340033993946
aF5.623400339939459
aF5.623400339939461
aF5.621081777891942
aF5.6138611019120415
aF5.615203190833406
aF5.6217749250725
aF5.620099426537083
aF5.613218038399945
aF5.613577775966444
aF5.621774925072504
aF5.621081777891941
aF5.617162015314423
aF5.622707192758899
aF5.615203190833404
aF5.620099426537082
aF5.6152031908334035
aF5.62340033993946
aF5.623400339939459
aF5.617685263458188
aF5.597998757573653
aF5.617162015314419
aF5.621752421506459
aF5.599836070063976
aF5.593143098116153
aF5.608964866208364
aF5.620099426537082
aF5.6171620153144195
aF5.623400339939458
aF5.62062775121722
aF5.591510930231983
aF5.603543935018135
aF5.61092369068938
aF5.622014045578339
aF5.602935569523506
aF5.588479646068671
aF5.585272605606942
aF5.604237082198697
aF5.6132180383999435
aF5.613218038399945
aF5.61051472835883
aF5.595113439202969
aF5.592555756649611
aF5.604786593724089
aF5.616615679713972
aF5.5938362452967105
aF5.613218038399946
aF5.609173894148544
aF5.582833905480602
aF5.570015556186953
aF5.617162015314422
aF5.623400339939455
aF5.623400339939462
aF5.62340033993946
aF5.62009942653708
aF5.609173894148545
aF5.5915109302319825
aF5.606412008591046
aF5.621774925072503
aF5.62340033993946
aF5.623400339939459
aF5.6227071927589005
aF5.613218038399945
aF5.61120787553939
aF5.602044911008564
aF5.604237082198697
aF5.617162015314418
aF5.623400339939458
aF5.621774925072504
aF5.623400339939458
aF5.623400339939462
aF5.620099426537081
aF5.613218038399947
aF5.615203190833402
aF5.614990264847015
aF5.591510930231983
aF5.599836070063982
aF5.589885515365024
aF5.602044911008566
aF5.604237082198695
aF5.615203190833405
aF5.618378410638745
aF5.602044911008563
aF5.602611667331739
aF5.613911185580504
aF5.615701422947884
aF5.586325836974582
aF5.613364849980058
aF5.577158251574764
aF5.555865845619177
aF5.623400339939459
aF5.620149510205545
aF5.623400339939458
aF5.62340033993946
aF5.621774925072501
aF5.623400339939459
aF5.617058183110859
aF5.559093124353163
aF5.549650953107926
aF5.596823740187837
aF5.586067305143761
aF5.473231584763566
aF5.615536600447462
aF5.619406279356522
aF5.573846112985423
aF5.388665558061092
aF5.575076315899399
aF5.48761132408203
as(I3
I7
tp711
(lp712
F0.24894480585888246
aF0.6160622563603606
aF1.8426004187790406
aF0.7550693816310925
aF0.9244892219609604
aF0.6568218551067702
aF0.47871923336697975
aF1.4729923244139165
aF0.7343622904571661
aF0.16278631433185145
aF1.6988915400040725
aF4.980238984112665
aF5.62340033993946
aF5.348977945162062
aF2.5357363618129045
aF1.8422112287973251
aF1.9930484804948354
aF2.379101107346776
aF2.464055971195947
aF2.5193425120249424
aF2.5428486487855473
aF2.1495779913486057
aF2.172981199507726
aF1.896398913813506
aF2.1507443777424453
aF2.1788343099048246
aF2.109615440683099
aF1.8860779731800472
aF1.8497157117302607
aF2.2233852252132937
aF2.137066050968064
aF2.024454579615114
aF2.2918220130589915
aF2.1796765003647773
aF2.01714248426037
aF2.021549286927207
aF2.1778220120057514
aF2.141568438778783
aF2.2897952463575613
aF1.9784583211901388
aF2.4290070381485926
aF2.50796736738089
aF2.1306304347524807
aF2.124403061496416
aF2.134786064581069
aF2.3371593798170363
aF2.4216522118455783
aF1.9293652634293859
aF2.428870456979963
aF1.507773285518844
aF1.5552041588098562
aF1.2923026130534339
aF1.8123156708170898
aF1.8251857072049373
aF1.594821638624629
aF1.8910330889936187
aF1.8873583118157866
aF1.6606550822331911
aF1.9814528583265376
aF1.572904748866728
aF1.9790306439793126
aF1.8282767095764205
aF1.8788400862606947
aF1.4363271186522208
aF1.8412347769231339
aF1.8200178688633508
aF2.1248345090578495
aF1.9571050692274266
aF1.9889920430416568
aF2.2374378527929526
aF1.9872043207492134
aF1.4848051874184163
aF2.186557756534193
aF1.902722883383555
aF2.910177667986024
aF2.563578282641975
aF1.781733862554594
aF1.4640625052252636
aF1.6318407237039965
aF1.7867762406831693
aF2.0046599231017725
aF1.5733428635107054
aF1.740052680971966
aF1.8548301027115015
aF1.3233081933807005
aF1.8619242815930241
aF1.9315200411537192
aF1.6340274726170412
aF1.8413908327520296
aF1.660632586273706
aF1.8207620666227764
aF1.9781025997633217
aF1.7018388224882626
aF1.317453508411225
aF1.5911512966754502
aF1.8064308602342325
aF1.828075466005405
aF1.9944456021276336
aF1.9058019460290534
aF1.947626720187583
aF2.0702479646252248
aF2.210428217680781
aF1.8737225898957526
aF2.2502170559070858
aF2.000142529755128
aF2.1748873019431603
aF2.0101614570418813
aF1.6450749236077202
aF1.901560717146057
aF2.3243538820821072
aF2.0882786703308733
aF1.4896544060605639
aF2.0953320479578528
aF1.839630379108242
aF1.8650950454167132
aF2.164998999242025
aF2.2292301182432577
aF2.3244398090259266
aF1.7028173956268307
aF2.0269727627876892
aF2.194392943299534
aF2.1850931896100985
aF1.9155856016559583
aF1.7006284969131182
aF1.9432767462898541
aF2.116056087338038
aF2.2992180955385626
aF2.3602835738877097
aF1.8848189610657893
aF1.985003373202893
aF1.8623130140590352
aF2.0986269032888103
aF1.8155769127461427
aF1.9382206499085814
aF2.2149764855348657
aF1.9954449269703327
aF1.8768001710189353
aF1.89838579750117
aF1.6868568116628038
aF1.7300928748526865
aF1.871922547578052
aF2.082331610141473
aF1.9501310534721708
aF2.2310566497583695
aF1.9266698843194408
aF1.9761786870123732
aF2.0397943505115927
aF1.919209383409023
aF1.8829242214294015
aF1.9653265576175305
aF1.8935238658366753
aF2.0776532227157216
aF1.9215226646316284
aF2.3590346197915517
aF1.8821581113734411
aF1.5829042407803349
aF1.7079213229950607
aF2.0190110444073066
aF1.8311774861955772
aF1.9018073971793483
aF2.1618544202995094
aF1.7085702914014547
aF2.035591464134813
aF1.9805857833978118
aF2.294566529838092
aF2.404273721087941
aF2.208902539324315
aF1.9464060724471086
aF1.9301688108386137
aF2.138770761991419
aF1.8124437980425858
aF2.006345933880684
aF1.9741953919792665
aF1.6355968979949296
aF1.7055076879027735
aF1.5463707290432713
aF1.2277562519064058
aF1.6599410963378838
aF1.7025954836192345
aF2.204975370612454
aF1.93749155330212
aF1.9253373035149934
aF1.983691259478168
aF1.9364383331184838
aF2.024174305132805
aF1.8507489919126885
aF1.7651499627568918
aF1.3824191115972626
aF1.424852213258595
aF1.7444785634757871
aF0.7181617150750855
aF1.722554582063878
aF1.0367109124913652
aF1.5400177537783943
aF1.7925393917102526
aF2.0021882173978316
aF1.8819908715108307
aF2.0185722221027245
aF2.0687904783880375
aF1.601969369176757
aF1.696223865744097
aF1.6518784215760647
aF1.4256707032882814
aF1.3958930928970363
aF1.331963735772999
aF1.3471773282276247
aF1.7693125225193653
aF1.0870927152932417
aF1.132486824231196
aF1.3128441972079083
aF1.1720208404142627
aF0.9242269826877763
aF0.8795755800544125
aF0.708816840531982
aF0.6770680966536213
aF0.7441859633270892
aF0.4638317817106318
aF0.6817296518337911
aF0.7037516750605217
aF0.7558139985228417
aF0.8599266912202002
aF0.5478299121481309
aF0.6495322455150107
aF0.37037071534005434
aF0.9927444230291004
aF0.1359051013786104
aF0.092032643319391
aF0.461846921210512
aF0.8239346078379902
aF0.20062525218810015
aF0.7031386423664377
as(I8
I5
tp713
(lp714
F0.7577491803406433
aF1.4969521039536569
aF5.305182262338787
aF5.621774925072501
aF5.615462302442047
aF5.597466803699932
aF5.5674366541698594
aF5.284823473294945
aF5.593737808145421
aF5.62201404557834
aF5.336703798947383
aF2.3521122006650637
aF0.0
aF0.8166735400020353
aF5.529486416288008
aF5.613577775966447
aF5.62340033993946
aF5.623400339939461
aF5.623400339939458
aF5.623400339939459
aF5.62340033993946
aF5.623400339939461
aF5.62340033993946
aF5.62340033993946
aF5.623400339939458
aF5.623400339939461
aF5.6227071927589
aF5.61716201531442
aF5.623400339939458
aF5.623400339939459
aF5.623400339939459
aF5.623400339939459
aF5.623400339939459
aF5.623400339939459
aF5.623400339939458
aF5.623400339939461
aF5.623400339939461
aF5.623400339939457
aF5.623400339939459
aF5.62340033993946
aF5.62340033993946
aF5.62340033993946
aF5.623400339939457
aF5.622707192758899
aF5.617162015314421
aF5.618524095338589
aF5.62340033993946
aF5.623400339939461
aF5.623400339939459
aF5.623400339939459
aF5.62340033993946
aF5.623400339939461
aF5.623400339939459
aF5.623400339939459
aF5.623400339939458
aF5.622707192758899
aF5.61716201531442
aF5.62340033993946
aF5.623400339939457
aF5.621081777891945
aF5.6171620153144195
aF5.623400339939459
aF5.62340033993946
aF5.62340033993946
aF5.623400339939458
aF5.62340033993946
aF5.62340033993946
aF5.623400339939461
aF5.623400339939461
aF5.623400339939459
aF5.62340033993946
aF5.622707192758899
aF5.6171620153144195
aF5.622707192758901
aF5.617162015314418
aF5.623400339939461
aF5.62340033993946
aF5.623400339939458
aF5.62340033993946
aF5.623400339939458
aF5.623400339939461
aF5.623400339939458
aF5.623400339939462
aF5.623400339939457
aF5.62340033993946
aF5.623400339939461
aF5.623400339939459
aF5.623400339939458
aF5.623400339939459
aF5.623400339939459
aF5.623400339939461
aF5.623400339939459
aF5.623400339939459
aF5.623400339939461
aF5.623400339939457
aF5.623400339939461
aF5.623400339939458
aF5.62340033993946
aF5.623400339939458
aF5.623400339939461
aF5.62340033993946
aF5.62340033993946
aF5.623400339939458
aF5.623400339939459
aF5.62340033993946
aF5.62340033993946
aF5.623400339939459
aF5.623400339939462
aF5.623400339939456
aF5.62340033993946
aF5.623400339939459
aF5.623400339939459
aF5.623400339939459
aF5.62340033993946
aF5.623400339939462
aF5.62340033993946
aF5.62340033993946
aF5.623400339939458
aF5.623400339939459
aF5.62340033993946
aF5.623400339939458
aF5.623400339939462
aF5.62340033993946
aF5.623400339939457
aF5.623400339939458
aF5.623400339939461
aF5.623400339939459
aF5.623400339939458
aF5.623400339939459
aF5.623400339939462
aF5.623400339939459
aF5.62340033993946
aF5.623400339939459
aF5.623400339939458
aF5.62340033993946
aF5.62340033993946
aF5.623400339939458
aF5.623400339939459
aF5.623400339939459
aF5.623400339939458
aF5.623400339939459
aF5.623400339939461
aF5.62340033993946
aF5.623400339939458
aF5.623400339939463
aF5.623400339939456
aF5.623400339939461
aF5.62340033993946
aF5.623400339939457
aF5.623400339939462
aF5.623400339939458
aF5.623400339939461
aF5.623400339939459
aF5.62340033993946
aF5.623400339939459
aF5.623400339939459
aF5.62340033993946
aF5.623400339939461
aF5.623400339939459
aF5.623400339939459
aF5.623400339939461
aF5.62340033993946
aF5.62340033993946
aF5.623400339939457
aF5.622707192758903
aF5.617162015314418
aF5.623400339939459
aF5.623400339939459
aF5.62340033993946
aF5.62340033993946
aF5.623400339939459
aF5.623400339939459
aF5.623400339939459
aF5.623400339939461
aF5.623400339939459
aF5.623400339939459
aF5.62340033993946
aF5.623400339939458
aF5.62340033993946
aF5.62340033993946
aF5.623400339939457
aF5.62340033993946
aF5.623400339939459
aF5.62340033993946
aF5.62340033993946
aF5.623400339939458
aF5.623400339939462
aF5.623400339939458
aF5.62340033993946
aF5.623400339939458
aF5.62340033993946
aF5.62340033993946
aF5.623400339939456
aF5.62340033993946
aF5.623400339939457
aF5.623400339939457
aF5.623400339939462
aF5.62340033993946
aF5.62340033993946
aF5.623400339939459
aF5.623400339939459
aF5.623400339939458
aF5.623400339939462
aF5.623400339939456
aF5.62340033993946
aF5.62340033993946
aF5.621774925072502
aF5.6217749250725015
aF5.620149510205547
aF5.618524095338587
aF5.621774925072503
aF5.620149510205547
aF5.623400339939459
aF5.623400339939459
aF5.621774925072501
aF5.623400339939458
aF5.62340033993946
aF5.623400339939462
aF5.623400339939458
aF5.621774925072502
aF5.616848596803166
aF5.611952361099489
aF5.618524095338589
aF5.614479951087186
aF5.599142302235353
aF5.621774925072502
aF5.620099426537082
aF5.599084575396281
aF5.550136132671129
aF5.6152231819362095
aF5.597700389048465
as(I5
I8
tp715
(lp716
F0.7577491803406433
aF1.4969521039536546
aF5.305182262338788
aF5.621774925072503
aF5.615462302442047
aF5.597466803699932
aF5.567436654169858
aF5.284823473294941
aF5.5937378081454225
aF5.622014045578338
aF5.336703798947383
aF2.352112200665064
aF0.0
aF0.8166735400020352
aF5.529486416288009
aF5.613577775966446
aF5.623400339939461
aF5.623400339939459
aF5.623400339939459
aF5.62340033993946
aF5.623400339939458
aF5.62340033993946
aF5.62340033993946
aF5.62340033993946
aF5.623400339939459
aF5.623400339939459
aF5.622707192758897
aF5.617162015314422
aF5.623400339939458
aF5.623400339939458
aF5.62340033993946
aF5.623400339939457
aF5.623400339939462
aF5.623400339939459
aF5.623400339939458
aF5.6234003399394625
aF5.62340033993946
aF5.623400339939457
aF5.623400339939461
aF5.623400339939456
aF5.62340033993946
aF5.623400339939461
aF5.623400339939458
aF5.6227071927589005
aF5.6171620153144195
aF5.6185240953385875
aF5.623400339939457
aF5.62340033993946
aF5.623400339939462
aF5.623400339939457
aF5.623400339939462
aF5.623400339939458
aF5.62340033993946
aF5.62340033993946
aF5.62340033993946
aF5.622707192758897
aF5.617162015314423
aF5.623400339939455
aF5.623400339939461
aF5.621081777891943
aF5.617162015314419
aF5.623400339939459
aF5.62340033993946
aF5.623400339939458
aF5.623400339939458
aF5.623400339939461
aF5.62340033993946
aF5.623400339939459
aF5.623400339939459
aF5.62340033993946
aF5.623400339939459
aF5.6227071927589005
aF5.6171620153144195
aF5.6227071927589005
aF5.617162015314419
aF5.623400339939461
aF5.623400339939456
aF5.623400339939461
aF5.623400339939458
aF5.623400339939459
aF5.623400339939459
aF5.623400339939461
aF5.62340033993946
aF5.62340033993946
aF5.623400339939456
aF5.623400339939461
aF5.623400339939458
aF5.623400339939459
aF5.623400339939461
aF5.623400339939459
aF5.623400339939457
aF5.62340033993946
aF5.623400339939461
aF5.623400339939459
aF5.623400339939458
aF5.62340033993946
aF5.623400339939459
aF5.623400339939462
aF5.623400339939458
aF5.623400339939461
aF5.623400339939458
aF5.62340033993946
aF5.623400339939458
aF5.623400339939461
aF5.623400339939457
aF5.623400339939461
aF5.62340033993946
aF5.623400339939458
aF5.62340033993946
aF5.62340033993946
aF5.623400339939461
aF5.623400339939457
aF5.623400339939457
aF5.623400339939459
aF5.623400339939461
aF5.623400339939458
aF5.623400339939458
aF5.62340033993946
aF5.623400339939462
aF5.623400339939458
aF5.623400339939458
aF5.623400339939458
aF5.623400339939459
aF5.62340033993946
aF5.62340033993946
aF5.623400339939459
aF5.623400339939458
aF5.623400339939459
aF5.623400339939459
aF5.623400339939461
aF5.623400339939458
aF5.623400339939459
aF5.62340033993946
aF5.623400339939459
aF5.623400339939458
aF5.623400339939457
aF5.6234003399394625
aF5.623400339939456
aF5.6234003399394625
aF5.623400339939459
aF5.623400339939459
aF5.62340033993946
aF5.62340033993946
aF5.623400339939458
aF5.623400339939458
aF5.62340033993946
aF5.623400339939457
aF5.62340033993946
aF5.623400339939462
aF5.623400339939457
aF5.623400339939461
aF5.623400339939458
aF5.62340033993946
aF5.623400339939458
aF5.623400339939461
aF5.623400339939458
aF5.623400339939458
aF5.623400339939461
aF5.623400339939459
aF5.623400339939461
aF5.623400339939459
aF5.623400339939457
aF5.62340033993946
aF5.623400339939459
aF5.622707192758899
aF5.617162015314416
aF5.623400339939461
aF5.623400339939459
aF5.623400339939459
aF5.623400339939459
aF5.623400339939458
aF5.62340033993946
aF5.623400339939459
aF5.623400339939458
aF5.623400339939458
aF5.62340033993946
aF5.623400339939462
aF5.623400339939459
aF5.623400339939458
aF5.62340033993946
aF5.623400339939455
aF5.62340033993946
aF5.62340033993946
aF5.623400339939462
aF5.623400339939458
aF5.62340033993946
aF5.623400339939458
aF5.62340033993946
aF5.623400339939458
aF5.623400339939458
aF5.62340033993946
aF5.6234003399394625
aF5.623400339939458
aF5.623400339939458
aF5.623400339939459
aF5.623400339939458
aF5.623400339939459
aF5.62340033993946
aF5.62340033993946
aF5.623400339939458
aF5.623400339939459
aF5.623400339939457
aF5.62340033993946
aF5.623400339939457
aF5.623400339939461
aF5.623400339939458
aF5.621774925072502
aF5.621774925072501
aF5.620149510205544
aF5.6185240953385875
aF5.6217749250725015
aF5.620149510205547
aF5.623400339939459
aF5.623400339939462
aF5.6217749250725015
aF5.623400339939459
aF5.623400339939459
aF5.623400339939459
aF5.623400339939458
aF5.621774925072503
aF5.616848596803167
aF5.611952361099492
aF5.6185240953385875
aF5.614479951087187
aF5.599142302235352
aF5.6217749250725015
aF5.620099426537083
aF5.59908457539628
aF5.550136132671127
aF5.6152231819362095
aF5.597700389048464
as(I7
I4
tp717
(lp718
F0.24989957711132466
aF0.6378096196961683
aF1.978214598598365
aF0.7584433924988053
aF0.9327288288738896
aF0.6978599634662294
aF0.5036120216562427
aF1.6342714718932985
aF0.77485042086972
aF0.16483114513901032
aF1.7449891579099617
aF5.114083875492984
aF5.623400339939461
aF5.363380975667888
aF2.698862386174591
aF2.0644185065105254
aF2.196098179203762
aF2.516969733780115
aF2.598324163313072
aF2.6534832662988053
aF2.7029507882596175
aF2.259515234018459
aF2.2515948343145196
aF1.970062876735865
aF2.214398633906501
aF2.190226023439996
aF2.193567092021647
aF1.9225572396234034
aF1.896645330813769
aF2.2721123848880413
aF2.2175857372731014
aF2.0791013562878917
aF2.3271847544695405
aF2.3013494449129857
aF2.045697968622168
aF2.0447090823164418
aF2.281535298185243
aF2.210033948657661
aF2.385945573273073
aF1.9988181657515054
aF2.5057327089037944
aF2.5590232929523893
aF2.175556286026441
aF2.196232287367179
aF2.2059511878210714
aF2.4416034325740212
aF2.6619936787039538
aF2.0021914382776624
aF2.5351945150721398
aF1.5140050346548268
aF1.6071632785090733
aF1.347634588054436
aF1.9674176380806885
aF1.973315323734724
aF1.6534450340406117
aF1.9664750607717112
aF1.9596698594097386
aF1.7019731254960082
aF2.0853967012552674
aF1.6476737131828116
aF2.1076941617305196
aF1.9347542225774343
aF1.9757605373087044
aF1.5071348951087582
aF1.890846926867439
aF1.864988267574911
aF2.1460939334679185
aF2.0066484439890004
aF2.0258158730883364
aF2.3480860427931054
aF2.1124626812857565
aF1.496816587979839
aF2.269838034428493
aF1.9917017150599932
aF3.148171424311696
aF2.7773319563344403
aF1.9010345353773925
aF1.511676768850912
aF1.7282226366362057
aF1.929909033305696
aF2.1071218177993307
aF1.5903016010681468
aF1.8179078039247796
aF1.976402630504356
aF1.3265347840371466
aF1.8834268423045726
aF1.9331454560206767
aF1.6440590976958949
aF1.9248447595332614
aF1.671213489518077
aF1.8921554117340982
aF2.05938730446174
aF1.7115772971521472
aF1.387932228022393
aF1.6597608401224742
aF1.849800095906255
aF1.9481837018847081
aF2.1164593576161588
aF1.9705606435247593
aF1.9483198673681426
aF2.0859796068330367
aF2.273596355616352
aF1.8872789605849116
aF2.296895423231768
aF2.049709585647224
aF2.1891372254978965
aF2.051078752241504
aF1.6470337480887358
aF1.9272590960850078
aF2.3560577782054217
aF2.1163943399572496
aF1.5663867626563128
aF2.130080119701487
aF1.8434711199928153
aF1.890639304853494
aF2.1896981345454356
aF2.234837673893051
aF2.3478640161949262
aF1.7111430475113862
aF2.0900637660966073
aF2.2467368145911446
aF2.256715218233362
aF1.9566142826619821
aF1.709221438185098
aF1.9432767462898546
aF2.122441362094776
aF2.344866364227592
aF2.3834293786435445
aF1.9140300851351268
aF2.026836925637991
aF1.9112977442118675
aF2.129801886751399
aF1.884043662419477
aF2.0313027970342166
aF2.2969813543935733
aF2.074948625634659
aF1.903238517883737
aF1.905349504865441
aF1.7274866428504814
aF1.8220977598707904
aF1.8783582996353199
aF2.1303220854561524
aF2.0771586482204616
aF2.2962754393668288
aF1.9605364932654634
aF2.0284144196613356
aF2.0834334003402124
aF2.023149898386304
aF1.9376658139756653
aF2.010112194209438
aF1.9283373631741663
aF2.148635032908319
aF2.0033455378593445
aF2.4914957594607148
aF1.9431605384290338
aF1.624364766633338
aF1.7507696713565641
aF2.062526376637578
aF1.8869822276599726
aF1.9615122065903539
aF2.1961531728031902
aF1.783774563896479
aF2.0754250583329257
aF2.0118421447639907
aF2.3726817290893463
aF2.5611884614294875
aF2.4234906598744357
aF2.0022366036292794
aF1.9465055194007
aF2.187623647704269
aF1.8226691526184609
aF2.0801463837161323
aF2.006945035311467
aF1.7201042801539117
aF1.7507909290875503
aF1.562128635880295
aF1.2885340049667606
aF1.8064590512545804
aF1.7082850922224142
aF2.258047005005556
aF1.9493805758125287
aF1.9323822727845863
aF2.0173581288025058
aF2.0024512440770277
aF2.0580334422276256
aF1.9094922152292066
aF1.8202620503421287
aF1.4582146527904984
aF1.4561164027033848
aF1.7819725224958172
aF0.737742355434602
aF1.7348854820433002
aF1.0429492371164044
aF1.5454329298265317
aF1.8472489271683634
aF2.0969780615155167
aF1.9603141396488963
aF2.0632764061525597
aF2.0988529274437884
aF1.6599567704152758
aF1.7954730539801218
aF1.7198872853070688
aF1.4436719931826651
aF1.459529454610258
aF1.331963735772999
aF1.347870475408185
aF1.778436165515093
aF1.1031749872491066
aF1.146347127463063
aF1.330032870260326
aF1.1791913755136176
aF0.9292008120985641
aF0.9021202620608951
aF0.7095099877125419
aF0.6833064212786608
aF0.7441859633270892
aF0.4645249288911917
aF0.6879679764588306
aF0.7037516750605217
aF0.7583160106405327
aF0.8846975262164654
aF0.5617829103608759
aF0.6606516044407069
aF0.39278143880098704
aF1.0203577393756444
aF0.14488605757986137
aF0.09399146780040671
aF0.47392470399070574
aF0.8784610293510509
aF0.21560839753608643
aF0.7346512157354675
as(I6
I7
tp719
(lp720
F0.24989957711132466
aF0.6378096196961683
aF1.9782145985983652
aF0.7584433924988053
aF0.9327288288738896
aF0.6978599634662294
aF0.5036120216562429
aF1.6342714718932987
aF0.7748504208697202
aF0.16483114513901032
aF1.7449891579099637
aF5.11408387549299
aF5.623400339939458
aF5.363380975667889
aF2.698862386174592
aF2.064418506510526
aF2.1960981792037613
aF2.5169697337801153
aF2.598324163313071
aF2.6534832662988053
aF2.702950788259617
aF2.2595152340184597
aF2.2515948343145187
aF1.9700628767358652
aF2.2143986339065007
aF2.1902260234399966
aF2.193567092021647
aF1.9225572396234032
aF1.8966453308137692
aF2.272112384888041
aF2.217585737273102
aF2.079101356287892
aF2.3271847544695397
aF2.3013494449129857
aF2.045697968622168
aF2.0447090823164427
aF2.2815352981852435
aF2.210033948657661
aF2.385945573273073
aF1.9988181657515058
aF2.5057327089037953
aF2.5590232929523893
aF2.1755562860264424
aF2.196232287367179
aF2.2059511878210705
aF2.4416034325740212
aF2.661993678703954
aF2.002191438277662
aF2.5351945150721398
aF1.5174963725428465
aF1.636113207228377
aF1.3773427895381898
aF1.9921916895155818
aF1.973315323734724
aF1.6534450340406117
aF1.9691168500890492
aF1.9839909123740853
aF1.7019731254960082
aF2.085396701255267
aF1.6476737131828114
aF2.107694161730519
aF1.9347542225774346
aF1.9757605373087046
aF1.507134895108758
aF1.8908469268674393
aF1.864988267574911
aF2.1495646764126732
aF2.030410733339752
aF2.0258158730883364
aF2.3480860427931045
aF2.1163895947310283
aF1.5213407302456017
aF2.2698380344284934
aF1.9917017150599932
aF3.1504418864692862
aF2.8027255199337673
aF1.9456052007050684
aF1.5116767688509125
aF1.728222636636206
aF1.929909033305696
aF2.1071218177993307
aF1.590301601068147
aF1.8179078039247794
aF1.976402630504356
aF1.3265347840371469
aF1.8834268423045724
aF1.9331454560206767
aF1.6440590976958949
aF1.9248447595332614
aF1.6712134895180766
aF1.8944935487168488
aF2.0806407510745943
aF1.711577297152147
aF1.3879322280223931
aF1.6597608401224744
aF1.849800095906255
aF1.9481837018847086
aF2.116459357616159
aF1.9705606435247591
aF1.9483198673681426
aF2.085979606833036
aF2.2735963556163523
aF1.8872789605849116
aF2.296895423231768
aF2.049709585647224
aF2.1891372254978965
aF2.051078752241504
aF1.6501089460068366
aF1.9491742077127732
aF2.356057778205422
aF2.1163943399572496
aF1.5663867626563137
aF2.134982075365473
aF1.8901958106373449
aF1.9305930610961002
aF2.189698134545435
aF2.234837673893051
aF2.3540665653895436
aF1.7570228424838579
aF2.0900637660966073
aF2.2467368145911446
aF2.256715218233362
aF1.9566142826619823
aF1.7092214381850983
aF1.9432767462898541
aF2.122441362094776
aF2.3448663642275918
aF2.383429378643544
aF1.914030085135127
aF2.0306700858330737
aF1.9344059457162863
aF2.129801886751399
aF1.887843937650986
aF2.0565034874938983
aF2.296981354393574
aF2.0749486256346596
aF1.9032385178837368
aF1.9053495048654414
aF1.7274866428504811
aF1.8220977598707901
aF1.8783582996353196
aF2.1303220854561524
aF2.0771586482204607
aF2.2962754393668297
aF1.9605364932654636
aF2.028414419661336
aF2.0834334003402124
aF2.0231498983863037
aF1.9376658139756657
aF2.010112194209439
aF1.9283373631741658
aF2.1486350329083184
aF2.0033455378593454
aF2.4914957594607148
aF1.9431605384290338
aF1.6243647666333376
aF1.7507696713565648
aF2.0625263766375777
aF1.8869822276599728
aF1.961512206590354
aF2.1961531728031902
aF1.7876670751266488
aF2.101342888400048
aF2.0355975109258453
aF2.372681729089346
aF2.5611884614294875
aF2.4234906598744366
aF2.0022366036292794
aF1.946505519400699
aF2.1876236477042688
aF1.8257051737606589
aF2.101955976628445
aF2.012928639978455
aF1.7684544982171955
aF1.7771095328278899
aF1.6082239871547979
aF1.3297016590759523
aF1.806459051254581
aF1.7082850922224138
aF2.2580470050055563
aF1.9493805758125293
aF1.932382272784586
aF2.0173581288025058
aF2.002451244077028
aF2.0580334422276256
aF1.909492215229206
aF1.820262050342129
aF1.4582146527904984
aF1.4561164027033848
aF1.7819725224958167
aF0.7400271052507471
aF1.7586328870779082
aF1.0687290999380263
aF1.549199460697225
aF1.8707034602058756
aF2.0969780615155167
aF1.9603141396488963
aF2.0632764061525597
aF2.098852927443788
aF1.6599567704152758
aF1.799412474592457
aF1.7458659334857027
aF1.4436719931826654
aF1.4595294546102577
aF1.331963735772999
aF1.347870475408185
aF1.7784361655150933
aF1.1031749872491066
aF1.146347127463063
aF1.330032870260326
aF1.1791913755136176
aF0.9292008120985642
aF0.905889693592879
aF0.7362705237585961
aF0.6833064212786609
aF0.7441859633270892
aF0.46793124714478135
aF0.7176295322659563
aF0.7284251626048739
aF0.7583160106405326
aF0.8846975262164654
aF0.5617829103608759
aF0.660651604440707
aF0.39278143880098704
aF1.0203577393756447
aF0.1448860575798614
aF0.09399146780040671
aF0.47392470399070574
aF0.8784610293510511
aF0.21560839753608646
aF0.7346512157354675
as(I7
I6
tp721
(lp722
F0.24989957711132466
aF0.6378096196961683
aF1.978214598598365
aF0.7584433924988053
aF0.9327288288738897
aF0.6978599634662294
aF0.5036120216562427
aF1.6342714718932985
aF0.7748504208697201
aF0.16483114513901032
aF1.7449891579099632
aF5.114083875492987
aF5.623400339939459
aF5.363380975667889
aF2.6988623861745906
aF2.0644185065105254
aF2.1960981792037617
aF2.5169697337801153
aF2.5983241633130714
aF2.653483266298805
aF2.702950788259617
aF2.259515234018459
aF2.2515948343145187
aF1.9700628767358648
aF2.214398633906501
aF2.190226023439996
aF2.1935670920216466
aF1.9225572396234036
aF1.896645330813769
aF2.272112384888041
aF2.217585737273102
aF2.0791013562878917
aF2.3271847544695405
aF2.301349444912985
aF2.045697968622168
aF2.0447090823164413
aF2.2815352981852426
aF2.2100339486576615
aF2.385945573273073
aF1.9988181657515052
aF2.5057327089037953
aF2.559023292952389
aF2.1755562860264415
aF2.1962322873671782
aF2.205951187821071
aF2.441603432574021
aF2.6619936787039538
aF2.0021914382776616
aF2.5351945150721393
aF1.5174963725428474
aF1.6361132072283773
aF1.3773427895381902
aF1.9921916895155811
aF1.973315323734724
aF1.6534450340406122
aF1.969116850089049
aF1.9839909123740853
aF1.7019731254960084
aF2.085396701255267
aF1.6476737131828119
aF2.107694161730519
aF1.9347542225774343
aF1.9757605373087048
aF1.507134895108758
aF1.8908469268674393
aF1.864988267574911
aF2.1495646764126732
aF2.0304107333397527
aF2.0258158730883364
aF2.348086042793105
aF2.116389594731029
aF1.5213407302456021
aF2.2698380344284934
aF1.9917017150599934
aF3.1504418864692867
aF2.8027255199337673
aF1.9456052007050684
aF1.511676768850913
aF1.7282226366362057
aF1.9299090333056963
aF2.107121817799331
aF1.5903016010681463
aF1.81790780392478
aF1.9764026305043556
aF1.3265347840371475
aF1.8834268423045728
aF1.933145456020677
aF1.644059097695895
aF1.9248447595332612
aF1.6712134895180766
aF1.8944935487168493
aF2.0806407510745943
aF1.7115772971521468
aF1.3879322280223936
aF1.6597608401224742
aF1.849800095906255
aF1.9481837018847084
aF2.116459357616159
aF1.970560643524759
aF1.9483198673681426
aF2.085979606833036
aF2.2735963556163523
aF1.8872789605849118
aF2.296895423231768
aF2.049709585647224
aF2.189137225497896
aF2.051078752241504
aF1.6501089460068366
aF1.9491742077127727
aF2.3560577782054217
aF2.1163943399572496
aF1.5663867626563135
aF2.134982075365473
aF1.8901958106373455
aF1.9305930610961004
aF2.1896981345454356
aF2.2348376738930513
aF2.3540665653895436
aF1.7570228424838579
aF2.0900637660966073
aF2.246736814591144
aF2.256715218233362
aF1.9566142826619821
aF1.7092214381850983
aF1.9432767462898541
aF2.1224413620947766
aF2.3448663642275918
aF2.3834293786435437
aF1.9140300851351273
aF2.0306700858330737
aF1.9344059457162863
aF2.1298018867513986
aF1.8878439376509857
aF2.0565034874938983
aF2.2969813543935733
aF2.0749486256346596
aF1.9032385178837374
aF1.9053495048654414
aF1.727486642850481
aF1.8220977598707897
aF1.8783582996353194
aF2.130322085456153
aF2.0771586482204607
aF2.296275439366829
aF1.9605364932654634
aF2.028414419661336
aF2.0834334003402124
aF2.023149898386304
aF1.9376658139756655
aF2.0101121942094387
aF1.9283373631741658
aF2.1486350329083184
aF2.003345537859345
aF2.4914957594607143
aF1.9431605384290338
aF1.6243647666333383
aF1.7507696713565652
aF2.0625263766375777
aF1.8869822276599726
aF1.9615122065903539
aF2.19615317280319
aF1.7876670751266492
aF2.1013428884000485
aF2.0355975109258453
aF2.372681729089346
aF2.561188461429486
aF2.423490659874436
aF2.002236603629279
aF1.9465055194006988
aF2.1876236477042696
aF1.8257051737606587
aF2.1019559766284446
aF2.0129286399784556
aF1.7684544982171955
aF1.7771095328278905
aF1.6082239871547979
aF1.329701659075952
aF1.8064590512545813
aF1.7082850922224133
aF2.2580470050055563
aF1.9493805758125293
aF1.932382272784586
aF2.0173581288025053
aF2.0024512440770277
aF2.0580334422276256
aF1.9094922152292062
aF1.8202620503421287
aF1.4582146527904984
aF1.456116402703385
aF1.7819725224958167
aF0.7400271052507471
aF1.7586328870779082
aF1.0687290999380263
aF1.5491994606972257
aF1.870703460205875
aF2.0969780615155167
aF1.9603141396488963
aF2.06327640615256
aF2.0988529274437884
aF1.659956770415276
aF1.7994124745924565
aF1.7458659334857027
aF1.4436719931826651
aF1.4595294546102575
aF1.3319637357729992
aF1.3478704754081852
aF1.7784361655150929
aF1.1031749872491066
aF1.1463471274630632
aF1.330032870260326
aF1.1791913755136176
aF0.9292008120985641
aF0.905889693592879
aF0.7362705237585961
aF0.6833064212786608
aF0.7441859633270891
aF0.46793124714478146
aF0.7176295322659563
aF0.7284251626048739
aF0.7583160106405327
aF0.8846975262164652
aF0.5617829103608758
aF0.6606516044407067
aF0.39278143880098704
aF1.0203577393756447
aF0.14488605757986137
aF0.0939914678004067
aF0.47392470399070574
aF0.878461029351051
aF0.21560839753608646
aF0.7346512157354675
as(I6
I3
tp723
(lp724
F0.24894480585888243
aF0.4613578145768151
aF0.944060672369564
aF0.07734010012178276
aF0.18876812404082294
aF0.3778590164676292
aF0.24954544505646997
aF0.9959934789560861
aF0.5315978236623666
aF0.09197624496927267
aF0.7990716909818879
aF1.1885572674090878
aF0.39666508557002855
aF0.551725940882517
aF1.173532014221162
aF0.9559425910357603
aF0.8488414215027976
aF0.8656694063123535
aF0.8182562658249869
aF0.8381316875958308
aF0.6595810895412946
aF0.7193970121019793
aF0.46559623246964577
aF0.3120244187041954
aF0.20038977389352614
aF0.24943311904696028
aF0.26048702363286425
aF0.2697968547863709
aF0.43073244871313965
aF0.5276663856646099
aF0.5127351474839514
aF0.21799351291314958
aF0.29286196299512696
aF0.46587785067309967
aF0.5371717179782936
aF0.3684866797249521
aF0.5394698259311895
aF0.34232165481962906
aF0.5615494048902371
aF0.4270747540616565
aF0.70422255471347
aF0.6854933754410318
aF0.5075687074877862
aF0.649337976845885
aF0.722130784968089
aF0.8330819114172029
aF1.1218987034590033
aF0.7148535474626091
aF0.9152566827651918
aF0.36652858088093215
aF0.8043043023403206
aF0.6453097680920298
aF0.7958182625695305
aF0.9019991438062175
aF0.668077094752218
aF0.687125903765615
aF0.78154161855214
aF0.5174088016728841
aF0.6370231386211589
aF0.6521416626996898
aF0.8925672691682273
aF0.7389227569006502
aF0.894623070894719
aF0.5171220113218733
aF0.5095983291837982
aF0.4484777591301396
aF0.5843056451305311
aF0.5409663996168848
aF0.6234050211231796
aF0.964239609267957
aF0.8958604253682786
aF0.2787702551647001
aF0.8475799371937045
aF0.6845015053747044
aF1.0695035245529037
aF1.049932258965306
aF0.6950052481764845
aF0.35443499740106166
aF0.30964804706966204
aF0.6008317456642701
aF0.7168778234637277
aF0.46482897308227905
aF0.6475834829616434
aF0.5780570476179356
aF0.1482750850253065
aF0.4170069413903517
aF0.4433485121446443
aF0.24050135095454933
aF0.3190924038079256
aF0.1380011069763218
aF0.29003303255641255
aF0.48765432936369746
aF0.24126410962087874
aF0.35708930525706106
aF0.2129674137655853
aF0.21343390013828734
aF0.3042351115051645
aF0.30623840762523324
aF0.3053598013488736
aF0.14944650775662816
aF0.39083290974338875
aF0.4943721871823282
aF0.28931536533634544
aF0.4172415865979323
aF0.2673075103139932
aF0.28611659499207764
aF0.5181482503300947
aF0.09632515686920659
aF0.1696186711159773
aF0.2653999440883663
aF0.14779349769388309
aF0.2470881386819322
aF0.30687928567972456
aF0.2900236743385482
aF0.20742985650114754
aF0.4138114076277618
aF0.37987399137696204
aF0.34823674231759527
aF0.1435582906862062
aF0.3180454535175138
aF0.23675993338414078
aF0.3898822751889989
aF0.1774103990244382
aF0.12173266693901937
aF0.14165239673258517
aF0.30205573987643913
aF0.19593758947199058
aF0.42392725763154027
aF0.3587298608396263
aF0.48222022861619396
aF0.4380023904488085
aF0.5120992089699332
aF0.5112823568645891
aF0.4918475777355581
aF0.574827842948929
aF0.337574266101999
aF0.2732287466791146
aF0.5249140668752309
aF0.31318990815193404
aF0.49213619276983495
aF0.3056672439468995
aF0.3476651719630759
aF0.4138843040315111
aF0.6324305306817938
aF0.29909232024732435
aF0.39766607540601107
aF0.45332245858463044
aF0.5274252835131368
aF0.35081691070612175
aF0.4639735933743137
aF0.37902631695200373
aF0.5547404697970726
aF0.42178687959879757
aF0.8669397487487749
aF0.4896156134815447
aF0.48092686919541733
aF0.6132525676703235
aF0.7119639179485501
aF0.6519156803041282
aF0.7102760355510622
aF0.7546626596865661
aF0.6519945857007563
aF0.7136163387297159
aF0.5522071364127364
aF0.8410754373212976
aF0.8868408606666139
aF0.7623759230475566
aF0.48251451118473326
aF0.4959782049331281
aF0.5472405014152205
aF0.3114283168411198
aF0.6101435184107995
aF0.4537532190761785
aF0.587297809929422
aF0.31219970641047207
aF0.36127498144309955
aF0.4633654384922676
aF0.4552856839392836
aF0.35713731901637646
aF0.6349705450918931
aF0.3446644597567482
aF0.3157606078782916
aF0.25215761199224557
aF0.2952614055190825
aF0.32136917025812456
aF0.3474562443720243
aF0.47976954733128413
aF0.3459708785510342
aF0.35669162059378917
aF0.4339368865657039
aF0.12905751825340253
aF0.4397341790780002
aF0.1929485778353352
aF0.14759608039337216
aF0.3430701002603301
aF0.4773116712163935
aF0.3579582859513638
aF0.28055053391048873
aF0.5062935270025491
aF0.4225174780858284
aF0.6920463010477657
aF0.6845873857921891
aF0.25322788231976995
aF0.27909287314805736
aF0.06853403144792194
aF0.3087097070256649
aF0.40872445153574744
aF0.2232559857975705
aF0.18202766356739988
aF0.295102722545714
aF0.10207998890300228
aF0.1729279353520862
aF0.2564979095442693
aF0.09104078923593453
aF0.09169408731512312
aF0.05759247889013249
aF0.017199803584415897
aF0.12043462045318841
aF0.061888283591141645
aF0.06816057362480037
aF0.2725346306870579
aF0.27287801261040323
aF0.22322419077925645
aF0.222622442340939
aF0.35249793813372504
aF0.13864773295482186
aF0.09329832061984675
aF0.18192670234993755
aF0.5453052695943736
aF0.19205323365951946
aF0.3892315258805463
as(I3
I6
tp725
(lp726
F0.24894480585888243
aF0.458186678502116
aF0.9440606723695639
aF0.07734010012178277
aF0.18876812404082294
aF0.3778590164676292
aF0.24954544505646997
aF0.9959934789560861
aF0.5315978236623666
aF0.09197624496927267
aF0.7990716909818878
aF1.1885572674090876
aF0.39666508557002855
aF0.551725940882517
aF1.173532014221162
aF0.9559425910357603
aF0.8488414215027976
aF0.8656694063123536
aF0.8182562658249869
aF0.8381316875958308
aF0.6595810895412946
aF0.7193970121019793
aF0.46559623246964577
aF0.31202441870419534
aF0.20038977389352614
aF0.24943311904696028
aF0.2604870236328643
aF0.2697968547863709
aF0.43073244871313965
aF0.5276663856646098
aF0.5127351474839514
aF0.21799351291314956
aF0.2928619629951269
aF0.4658778506730996
aF0.5371717179782936
aF0.3684866797249521
aF0.5394698259311894
aF0.34232165481962906
aF0.5615494048902372
aF0.4270747540616565
aF0.7042225547134698
aF0.6854933754410317
aF0.5075687074877862
aF0.649337976845885
aF0.722130784968089
aF0.833081911417203
aF1.1218987034590033
aF0.7148535474626091
aF0.9152566827651918
aF0.36652858088093215
aF0.8043043023403205
aF0.6453097680920298
aF0.7958182625695305
aF0.9019991438062175
aF0.668077094752218
aF0.687125903765615
aF0.78154161855214
aF0.5174088016728841
aF0.6370231386211589
aF0.6521416626996897
aF0.8925672691682272
aF0.7389227569006502
aF0.894623070894719
aF0.5171220113218733
aF0.5095983291837981
aF0.4484777591301396
aF0.584305645130531
aF0.5409663996168848
aF0.6234050211231796
aF0.9642396092679573
aF0.8958604253682786
aF0.2787702551647001
aF0.8475799371937043
aF0.6845015053747046
aF1.0695035245529039
aF1.049932258965306
aF0.6950052481764845
aF0.35443499740106166
aF0.30964804706966204
aF0.6008317456642702
aF0.7168778234637277
aF0.464828973082279
aF0.6475834829616434
aF0.5780570476179357
aF0.1482750850253065
aF0.4170069413903516
aF0.4433485121446443
aF0.24050135095454933
aF0.3190924038079256
aF0.13800110697632179
aF0.2900330325564125
aF0.48765432936369746
aF0.24126410962087871
aF0.357089305257061
aF0.2129674137655853
aF0.2134339001382873
aF0.3042351115051645
aF0.3062384076252332
aF0.3053598013488736
aF0.14944650775662816
aF0.39083290974338875
aF0.4943721871823282
aF0.2893153653363454
aF0.4172415865979323
aF0.26730751031399325
aF0.28611659499207764
aF0.5181482503300947
aF0.0963251568692066
aF0.16961867111597734
aF0.2653999440883663
aF0.14779349769388309
aF0.2470881386819322
aF0.30687928567972456
aF0.2900236743385482
aF0.2074298565011475
aF0.41381140762776186
aF0.37987399137696204
aF0.34823674231759527
aF0.1435582906862062
aF0.31804545351751373
aF0.23675993338414078
aF0.3898822751889989
aF0.17741039902443817
aF0.12173266693901937
aF0.14165239673258517
aF0.30205573987643913
aF0.19593758947199058
aF0.42392725763154027
aF0.35872986083962627
aF0.48222022861619396
aF0.43800239044880857
aF0.5120992089699332
aF0.5112823568645891
aF0.4918475777355581
aF0.5748278429489291
aF0.337574266101999
aF0.2732287466791146
aF0.5249140668752308
aF0.31318990815193404
aF0.49213619276983495
aF0.30566724394689954
aF0.3476651719630759
aF0.4138843040315111
aF0.6324305306817938
aF0.2990923202473244
aF0.39766607540601107
aF0.4533224585846304
aF0.5274252835131368
aF0.35081691070612175
aF0.4639735933743137
aF0.3790263169520036
aF0.5547404697970727
aF0.42178687959879757
aF0.8669397487487749
aF0.48961561348154464
aF0.48092686919541733
aF0.6132525676703235
aF0.71196391794855
aF0.6519156803041282
aF0.7102760355510621
aF0.7546626596865661
aF0.6519945857007564
aF0.7136163387297159
aF0.5522071364127363
aF0.8410754373212975
aF0.8868408606666139
aF0.7623759230475566
aF0.4825145111847333
aF0.495978204933128
aF0.5472405014152204
aF0.3114283168411198
aF0.6101435184107995
aF0.4537532190761785
aF0.587297809929422
aF0.312199706410472
aF0.36127498144309955
aF0.4633654384922676
aF0.45528568393928354
aF0.35713731901637646
aF0.6349705450918932
aF0.3446644597567482
aF0.3157606078782916
aF0.2521576119922456
aF0.2952614055190825
aF0.3213691702581245
aF0.3474562443720243
aF0.47976954733128413
aF0.3459708785510342
aF0.3566916205937891
aF0.4339368865657039
aF0.12905751825340253
aF0.4397341790780002
aF0.1929485778353352
aF0.1475960803933722
aF0.3430701002603301
aF0.4773116712163935
aF0.35795828595136375
aF0.28055053391048873
aF0.5062935270025491
aF0.42251747808582835
aF0.6920463010477657
aF0.684587385792189
aF0.25322788231976995
aF0.2790928731480573
aF0.06853403144792193
aF0.30870970702566497
aF0.40872445153574744
aF0.2232559857975705
aF0.18202766356739988
aF0.295102722545714
aF0.10207998890300228
aF0.1729279353520862
aF0.2564979095442693
aF0.09104078923593452
aF0.0916940873151231
aF0.05759247889013249
aF0.017199803584415897
aF0.12043462045318841
aF0.06188828359114164
aF0.06816057362480035
aF0.2725346306870579
aF0.27287801261040323
aF0.22322419077925645
aF0.22262244234093903
aF0.35249793813372504
aF0.13864773295482186
aF0.09329832061984675
aF0.18192670234993755
aF0.5453052695943736
aF0.19205323365951946
aF0.3892315258805463
as(I8
I6
tp727
(lp728
F0.44290010280279074
aF0.9137114942854276
aF2.818924827700461
aF2.4652854522568792
aF1.5343223715445975
aF2.2441186042278067
aF2.6144508220531586
aF2.3702361885897525
aF0.8933045957228206
aF0.1719525674854757
aF1.535053763277767
aF1.8940875760671454
aF0.0
aF0.5841725971190029
aF3.072938504919796
aF3.2124448135284633
aF2.9774881673233344
aF3.0173225402061408
aF3.1944725046609665
aF3.3347016135747123
aF3.538392059277173
aF2.5879374628095397
aF2.7311356823433948
aF2.3349167173222694
aF2.6902862419905955
aF2.6036795883970605
aF2.647112676702074
aF2.1347727702090924
aF2.443539451256767
aF2.959434413088441
aF3.03319832030375
aF2.857811626324401
aF3.008814145037195
aF2.9550514958105616
aF2.7757429754365264
aF2.7845499183062348
aF3.006291161103476
aF2.707620415923644
aF2.8100835665144315
aF2.433709422787962
aF3.1774155185832815
aF3.2412729088460015
aF2.868474834951441
aF2.75739820133974
aF2.9742823931642053
aF3.1207392622318473
aF3.7125621764902204
aF2.542656431958606
aF3.224507627063988
aF2.4563660659446094
aF3.170294771732931
aF2.3480412737210385
aF3.1684498316079446
aF3.147984044073561
aF3.030470995271245
aF3.0522603528156806
aF2.9540764705084155
aF2.534253911403293
aF2.8762835098733817
aF2.8755642410667064
aF3.2505054484034934
aF2.8478896016116093
aF2.830872608854425
aF2.535779428530345
aF2.7587364417924185
aF2.670516761255327
aF2.7599547118825987
aF2.8753076970762095
aF2.458914856102682
aF3.2839257399389337
aF3.078248849472571
aF2.631456145801161
aF3.233581163175439
aF2.8757245357152916
aF3.6783546483643854
aF3.3231817985052947
aF2.5646622098607272
aF1.763850077801059
aF2.0647049471011796
aF2.4365751860816087
aF2.9426949521272214
aF2.3090457359890677
aF2.493272413618122
aF2.479841378505367
aF1.5022855532194963
aF2.564436074047489
aF2.7463838102095326
aF2.04045424770511
aF2.2896031963935433
aF1.6179644514787916
aF2.3029472948496923
aF2.5435269110498746
aF1.8605812865348323
aF2.1405843937788678
aF2.6631418014439534
aF2.083107167004908
aF2.2638652980539757
aF2.714699567735507
aF3.010818684788806
aF2.726943782818938
aF2.8789649136432516
aF2.973241899714275
aF2.868124249465614
aF2.9026311722814975
aF2.5644990015188136
aF2.7421719994817475
aF3.0786524073921324
aF2.3095014547430255
aF2.622768777759966
aF3.1197228678957702
aF3.012391362860104
aF2.5869698446918235
aF3.1041993438079727
aF2.6094879872595103
aF2.7900703095978496
aF3.156251343595464
aF2.895852387051267
aF2.9542031722483424
aF2.168191551968252
aF2.9232668169440825
aF3.216539956078127
aF3.0846755375666
aF2.610771128263055
aF2.43865023876554
aF2.5417137657247717
aF2.5879737816462716
aF3.068843424560099
aF3.240056333388563
aF2.965654136017935
aF2.9212280797667685
aF2.626658006503243
aF3.265405443452515
aF3.183019071154392
aF2.8361983563765913
aF3.0616964912144375
aF2.586147963665678
aF2.637199034716583
aF2.995966589691844
aF2.668740159631734
aF2.6642436985465245
aF2.243439926589599
aF2.759359658643565
aF2.98423231855237
aF3.243519025052642
aF2.435603191446479
aF2.9534253763685907
aF2.6057714043977613
aF3.123225474542157
aF2.6554965001813455
aF2.622795803631616
aF2.737461898233479
aF2.8379714896379276
aF2.5040651016109234
aF3.3575957040409574
aF2.682257065349639
aF2.5317941202912295
aF2.8620769697943373
aF2.924117024703264
aF3.0249872067087358
aF2.836845408567067
aF2.7985421395065666
aF2.690981784179568
aF3.0981321631099816
aF3.002394100229767
aF3.2289767655903523
aF3.5598534971483593
aF3.3013910871152667
aF2.8833333802509977
aF2.5879308807452923
aF3.2864756047401618
aF2.957733383708418
aF3.1313981776566377
aF2.7858490767667483
aF2.8968940617300354
aF2.109491604967654
aF2.0416215732041465
aF2.31461383567292
aF2.83003305916316
aF2.4134794393950942
aF2.9902017431172805
aF2.8391409746846534
aF2.739031311673419
aF2.429926688501801
aF2.399774333382495
aF2.764264352526136
aF2.8677488690074044
aF2.334096565517537
aF2.278172359188742
aF2.3984196073427517
aF2.541445568449718
aF1.5460563094425521
aF2.9146510213716277
aF1.7420769387574906
aF2.496174743505904
aF2.8488543702431826
aF3.207211741236935
aF2.7862271099768963
aF2.927555349263775
aF2.8368719479474303
aF2.107620504828201
aF2.582955794158768
aF2.6191416856362006
aF2.241782332780325
aF2.3070700579034784
aF1.853074675285662
aF2.206165508989637
aF2.932067071419711
aF2.4247728775425266
aF2.7304956588705416
aF2.5663527681623592
aF1.3947867515662011
aF1.9465182575687645
aF1.7749299326065235
aF2.025776222016572
aF2.657630056350624
aF2.3598785214404097
aF2.598849075468706
aF2.6334892174232896
aF1.8852242883708497
aF2.316657160123771
aF2.5069177536582035
aF2.0771577002743693
aF2.4441646410689213
aF1.8609776102142215
aF1.8678152455252002
aF1.030089252151394
aF2.086131999091908
aF2.4030067663669934
aF2.1894889427494966
aF2.5480141184510625
aF2.577571191627561
as(I5
I3
tp729
(lp730
F0.7567944090882012
aF1.4583146853360598
aF4.9946109313918
aF5.617376921483307
aF5.5678916208591085
aF5.499813092055473
aF5.522272561246289
aF4.963903026193759
aF5.465168180460533
aF5.604501915994171
aF5.169368373385452
aF2.3509435113770984
aF0.39666508557002855
aF0.9429792790755425
aF5.373805203169205
aF5.554574309440323
aF5.582359424289338
aF5.612524891219384
aF5.602935569523506
aF5.589172793249232
aF5.596148400947594
aF5.623400339939459
aF5.62340033993946
aF5.623400339939457
aF5.623400339939459
aF5.621774925072503
aF5.621081777891941
aF5.616468868133861
aF5.614389426592182
aF5.596148400947591
aF5.6217749250725015
aF5.615775720953302
aF5.5524602070165106
aF5.615203190833403
aF5.616752995771787
aF5.59983607006398
aF5.596148400947595
aF5.623400339939458
aF5.623400339939459
aF5.618683597977814
aF5.573690744042695
aF5.604237082198694
aF5.61716201531442
aF5.616638767170656
aF5.549961399682241
aF5.563681180305919
aF5.530068818300688
aF5.588479646068673
aF5.589910076322555
aF5.606666295263654
aF5.52497007597022
aF5.491947238947987
aF5.610514728358831
aF5.595806586383525
aF5.6020449110085675
aF5.6013517638280055
aF5.591972330571983
aF5.5915109302319825
aF5.6042370821986935
aF5.599927704096557
aF5.5392790621258765
aF5.588479646068672
aF5.589216929141993
aF5.6155366004474665
aF5.6166156797139735
aF5.590817783051424
aF5.600173683966005
aF5.6217749250725
aF5.583265979749255
aF5.503566983467918
aF5.5328129654549905
aF5.622014045578339
aF5.606979713774906
aF5.597808396913134
aF5.528117971215871
aF5.604237082198695
aF5.61051472835883
aF5.602330749417402
aF5.6217749250725015
aF5.614814449230165
aF5.5799290686677345
aF5.603543935018137
aF5.606979713774907
aF5.615203190833402
aF5.620099426537082
aF5.615203190833404
aF5.621774925072503
aF5.61443443372427
aF5.600173683966004
aF5.621774925072503
aF5.621774925072503
aF5.620099426537079
aF5.613218038399949
aF5.6171620153144195
aF5.623400339939461
aF5.623400339939457
aF5.621081777891943
aF5.612140086013704
aF5.608569074042439
aF5.622707192758901
aF5.615203190833405
aF5.6217749250725015
aF5.609728088160195
aF5.563741253737401
aF5.623400339939458
aF5.6194062793565225
aF5.606979713774905
aF5.615203190833404
aF5.623400339939459
aF5.623400339939461
aF5.622707192758901
aF5.615203190833404
aF5.6217749250725
aF5.623400339939459
aF5.622014045578343
aF5.606979713774905
aF5.615203190833405
aF5.623400339939457
aF5.622707192758897
aF5.615203190833406
aF5.620099426537083
aF5.617162015314419
aF5.623400339939459
aF5.623400339939461
aF5.62340033993946
aF5.623400339939459
aF5.62108177789194
aF5.613861101912042
aF5.615203190833406
aF5.6217749250725015
aF5.62009942653708
aF5.613218038399947
aF5.611952361099489
aF5.621774925072503
aF5.621081777891941
aF5.617162015314422
aF5.622707192758899
aF5.613577775966447
aF5.620099426537084
aF5.615203190833404
aF5.623400339939458
aF5.623400339939458
aF5.617685263458186
aF5.597998757573656
aF5.617162015314418
aF5.621752421506456
aF5.59983607006398
aF5.585494264793039
aF5.564506589304719
aF5.620099426537082
aF5.6171620153144195
aF5.623400339939459
aF5.620627751217221
aF5.591510930231982
aF5.603543935018137
aF5.610923690689379
aF5.622014045578339
aF5.602935569523505
aF5.588479646068673
aF5.585272605606945
aF5.6042370821986935
aF5.613218038399945
aF5.613218038399945
aF5.6105147283588295
aF5.595113439202969
aF5.579552437713956
aF5.588078418379792
aF5.578395727435367
aF5.592210830429753
aF5.613218038399947
aF5.608480746967983
aF5.576595580855563
aF5.570015556186954
aF5.617162015314422
aF5.623400339939458
aF5.623400339939461
aF5.623400339939456
aF5.620099426537083
aF5.609173894148544
aF5.591510930231983
aF5.606412008591044
aF5.621774925072502
aF5.621774925072501
aF5.610397021003802
aF5.621081777891944
aF5.613218038399945
aF5.611207875539387
aF5.602044911008566
aF5.604237082198696
aF5.6171620153144195
aF5.62340033993946
aF5.6217749250725
aF5.623400339939462
aF5.623400339939457
aF5.620099426537082
aF5.613218038399947
aF5.615203190833403
aF5.614990264847014
aF5.591510930231984
aF5.597756628522299
aF5.57117054148991
aF5.602044911008564
aF5.604237082198694
aF5.615203190833404
aF5.618378410638747
aF5.602044911008567
aF5.602611667331735
aF5.6139111855805055
aF5.615701422947884
aF5.586325836974582
aF5.613364849980059
aF5.577158251574765
aF5.555865845619177
aF5.623400339939461
aF5.620149510205543
aF5.623400339939462
aF5.623400339939457
aF5.621774925072502
aF5.623400339939459
aF5.61705818311086
aF5.559093124353161
aF5.549650953107927
aF5.596823740187833
aF5.586067305143762
aF5.473231584763565
aF5.615536600447462
aF5.619406279356522
aF5.573846112985423
aF5.3886655580610885
aF5.575076315899401
aF5.487611324082029
as(I6
I4
tp731
(lp732
F0.24894480585888246
aF0.4613578145768151
aF0.9440606723695638
aF0.07734010012178277
aF0.18876812404082294
aF0.3778590164676292
aF0.24954544505646997
aF0.9959934789560863
aF0.5315978236623667
aF0.09197624496927267
aF0.9228529639608403
aF2.5209221591199977
aF2.2334550499912975
aF2.438658169708334
aF1.2164967205810617
aF0.9559425910357601
aF0.8488414215027976
aF0.8656694063123536
aF0.8182562658249869
aF0.8381316875958307
aF0.6595810895412946
aF0.7193970121019793
aF0.4655962324696458
aF0.31202441870419534
aF0.20038977389352614
aF0.2494331190469603
aF0.26048702363286425
aF0.2697968547863709
aF0.4307324487131396
aF0.5276663856646098
aF0.5127351474839514
aF0.21799351291314956
aF0.2928619629951269
aF0.46587785067309956
aF0.5371717179782936
aF0.368486679724952
aF0.5394698259311894
aF0.3423216548196291
aF0.5615494048902372
aF0.4270747540616565
aF0.7042225547134698
aF0.6854933754410318
aF0.507568707487786
aF0.649337976845885
aF0.722130784968089
aF0.8330819114172029
aF1.1218987034590033
aF0.7148535474626091
aF0.9152566827651917
aF0.36652858088093215
aF0.8043043023403206
aF0.6453097680920298
aF0.7958182625695306
aF0.9019991438062175
aF0.6680770947522179
aF0.687125903765615
aF0.78154161855214
aF0.5174088016728841
aF0.6370231386211589
aF0.6521416626996897
aF0.8925672691682273
aF0.7389227569006501
aF0.894623070894719
aF0.5171220113218733
aF0.5095983291837981
aF0.44847775913013965
aF0.584305645130531
aF0.5409663996168848
aF0.6234050211231796
aF0.9642396092679572
aF0.8958604253682786
aF0.27877025516470005
aF0.8475799371937045
aF0.6845015053747046
aF1.0695035245529039
aF1.0499322589653062
aF0.6950052481764845
aF0.35443499740106166
aF0.30964804706966204
aF0.6008317456642701
aF0.7168778234637277
aF0.46482897308227905
aF0.6475834829616434
aF0.5780570476179357
aF0.1482750850253065
aF0.41700694139035166
aF0.44334851214464427
aF0.24050135095454933
aF0.3190924038079256
aF0.13800110697632179
aF0.2900330325564125
aF0.48765432936369746
aF0.24126410962087874
aF0.357089305257061
aF0.2129674137655853
aF0.21343390013828734
aF0.3042351115051645
aF0.3062384076252333
aF0.30535980134887364
aF0.14944650775662816
aF0.3908329097433888
aF0.4943721871823282
aF0.28931536533634544
aF0.4172415865979323
aF0.26730751031399325
aF0.2861165949920777
aF0.5181482503300947
aF0.09632515686920659
aF0.16961867111597734
aF0.2653999440883663
aF0.1477934976938831
aF0.2470881386819322
aF0.30687928567972456
aF0.2900236743385482
aF0.20742985650114754
aF0.4138114076277618
aF0.3798739913769621
aF0.34823674231759527
aF0.1435582906862062
aF0.31804545351751373
aF0.23675993338414075
aF0.38988227518899893
aF0.17741039902443817
aF0.12173266693901937
aF0.14165239673258517
aF0.30205573987643913
aF0.19593758947199058
aF0.42392725763154027
aF0.35872986083962627
aF0.48222022861619396
aF0.4380023904488085
aF0.5120992089699331
aF0.5112823568645892
aF0.49184757773555804
aF0.574827842948929
aF0.337574266101999
aF0.2732287466791147
aF0.5249140668752309
aF0.31318990815193404
aF0.49213619276983495
aF0.3056672439468995
aF0.34766517196307584
aF0.4138843040315111
aF0.6324305306817938
aF0.29909232024732435
aF0.39766607540601107
aF0.4533224585846304
aF0.5274252835131368
aF0.35081691070612175
aF0.4639735933743137
aF0.37902631695200373
aF0.5547404697970726
aF0.4217868795987975
aF0.8669397487487749
aF0.48961561348154464
aF0.4809268691954173
aF0.6132525676703237
aF0.71196391794855
aF0.651915680304128
aF0.7102760355510621
aF0.754662659686566
aF0.6519945857007564
aF0.713616338729716
aF0.5522071364127364
aF0.8410754373212976
aF0.8868408606666139
aF0.7623759230475565
aF0.4825145111847333
aF0.49597820493312805
aF0.5472405014152205
aF0.3114283168411198
aF0.6101435184107995
aF0.45375321907617855
aF0.5872978099294219
aF0.312199706410472
aF0.3612749814430996
aF0.4633654384922676
aF0.45528568393928365
aF0.3571373190163765
aF0.6349705450918931
aF0.3446644597567482
aF0.3157606078782916
aF0.25215761199224557
aF0.29526140551908253
aF0.3213691702581245
aF0.3474562443720244
aF0.47976954733128413
aF0.34597087855103426
aF0.35669162059378917
aF0.4339368865657039
aF0.12905751825340253
aF0.4397341790780002
aF0.19294857783533517
aF0.14759608039337216
aF0.3430701002603301
aF0.4773116712163935
aF0.3579582859513637
aF0.2805505339104888
aF0.5062935270025491
aF0.4225174780858284
aF0.6920463010477655
aF0.6845873857921891
aF0.2532278823197699
aF0.27909287314805736
aF0.06853403144792193
aF0.30870970702566497
aF0.40872445153574744
aF0.2232559857975705
aF0.18202766356739988
aF0.295102722545714
aF0.10207998890300228
aF0.17292793535208617
aF0.2564979095442693
aF0.09104078923593452
aF0.0916940873151231
aF0.05759247889013249
aF0.017199803584415897
aF0.12043462045318841
aF0.061888283591141645
aF0.06816057362480037
aF0.2725346306870579
aF0.27287801261040323
aF0.22322419077925645
aF0.22262244234093903
aF0.35249793813372504
aF0.13864773295482188
aF0.09329832061984676
aF0.18192670234993757
aF0.5453052695943736
aF0.19205323365951946
aF0.3892315258805463
as(I5
I4
tp733
(lp734
F0.7567944090882013
aF1.4583146853360602
aF4.994610931391802
aF5.617376921483306
aF5.567891620859111
aF5.499813092055472
aF5.522272561246291
aF4.963903026193761
aF5.465168180460531
aF5.605195063174729
aF5.303092827398078
aF3.7020233769631257
aF2.2334550499912975
aF2.8312978022624793
aF5.476383589920939
aF5.554574309440323
aF5.58235942428934
aF5.612524891219384
aF5.602935569523504
aF5.589172793249235
aF5.596148400947594
aF5.623400339939458
aF5.623400339939459
aF5.623400339939458
aF5.623400339939461
aF5.621774925072501
aF5.621081777891945
aF5.6164688681338575
aF5.61438942659218
aF5.596148400947594
aF5.621774925072504
aF5.623400339939459
aF5.6227071927589005
aF5.615203190833404
aF5.616752995771788
aF5.599836070063979
aF5.596148400947595
aF5.623400339939459
aF5.623400339939458
aF5.6186835979778165
aF5.573690744042697
aF5.6042370821986935
aF5.6171620153144195
aF5.616638767170655
aF5.549961399682241
aF5.565306595172874
aF5.530068818300686
aF5.588479646068676
aF5.589910076322556
aF5.62009942653708
aF5.607263898624918
aF5.597998757573652
aF5.610514728358831
aF5.595806586383528
aF5.6020449110085675
aF5.6013517638280055
aF5.591972330571982
aF5.5915109302319825
aF5.604237082198698
aF5.599927704096556
aF5.539279062125876
aF5.588479646068672
aF5.589910076322554
aF5.621774925072501
aF5.616615679713974
aF5.590817783051425
aF5.6001736839660055
aF5.621774925072502
aF5.6113520591622486
aF5.5545269198393905
aF5.5922087168142625
aF5.6220140455783385
aF5.606979713774907
aF5.599433811780086
aF5.528117971215876
aF5.6042370821986935
aF5.610514728358832
aF5.602330749417403
aF5.623400339939457
aF5.614814449230168
aF5.5799290686677345
aF5.603543935018138
aF5.606979713774907
aF5.615203190833405
aF5.620099426537079
aF5.615203190833406
aF5.6217749250725
aF5.617685263458185
aF5.600173683966006
aF5.621774925072503
aF5.6217749250725
aF5.620099426537084
aF5.613218038399946
aF5.617162015314419
aF5.623400339939459
aF5.62340033993946
aF5.621081777891943
aF5.612140086013705
aF5.608569074042441
aF5.6227071927589005
aF5.615203190833406
aF5.621774925072502
aF5.6217749250725015
aF5.623400339939457
aF5.62340033993946
aF5.619406279356522
aF5.606979713774907
aF5.615203190833405
aF5.623400339939458
aF5.623400339939459
aF5.6227071927589005
aF5.615203190833404
aF5.621774925072501
aF5.62340033993946
aF5.622014045578339
aF5.6069797137749084
aF5.615203190833404
aF5.623400339939458
aF5.622707192758902
aF5.615203190833406
aF5.620099426537079
aF5.61716201531442
aF5.623400339939461
aF5.623400339939459
aF5.623400339939459
aF5.623400339939461
aF5.621081777891943
aF5.613861101912043
aF5.615203190833404
aF5.6217749250725
aF5.620099426537082
aF5.613218038399944
aF5.613577775966449
aF5.6217749250725
aF5.621081777891942
aF5.617162015314419
aF5.622707192758899
aF5.615203190833404
aF5.620099426537081
aF5.615203190833408
aF5.623400339939459
aF5.623400339939458
aF5.617685263458183
aF5.597998757573654
aF5.617162015314422
aF5.621752421506457
aF5.599836070063979
aF5.593143098116153
aF5.608964866208367
aF5.620099426537079
aF5.61716201531442
aF5.623400339939458
aF5.620627751217221
aF5.591510930231987
aF5.603543935018132
aF5.61092369068938
aF5.622014045578339
aF5.602935569523504
aF5.5884796460686745
aF5.585272605606942
aF5.604237082198695
aF5.6132180383999435
aF5.613218038399947
aF5.6105147283588295
aF5.5951134392029696
aF5.592555756649611
aF5.604786593724088
aF5.616615679713971
aF5.5938362452967105
aF5.613218038399946
aF5.609173894148543
aF5.582833905480605
aF5.570015556186954
aF5.6171620153144195
aF5.623400339939459
aF5.623400339939458
aF5.623400339939459
aF5.620099426537081
aF5.609173894148546
aF5.591510930231984
aF5.606412008591046
aF5.621774925072502
aF5.623400339939459
aF5.623400339939459
aF5.6227071927589005
aF5.613218038399944
aF5.61120787553939
aF5.602044911008568
aF5.604237082198696
aF5.617162015314417
aF5.623400339939458
aF5.621774925072501
aF5.623400339939461
aF5.623400339939457
aF5.620099426537083
aF5.613218038399945
aF5.615203190833404
aF5.614990264847016
aF5.591510930231983
aF5.599836070063979
aF5.589885515365028
aF5.6020449110085675
aF5.6042370821986935
aF5.615203190833405
aF5.618378410638743
aF5.6020449110085675
aF5.602611667331738
aF5.613911185580505
aF5.615701422947887
aF5.58632583697458
aF5.613364849980059
aF5.577158251574764
aF5.555865845619175
aF5.623400339939458
aF5.620149510205544
aF5.623400339939462
aF5.623400339939459
aF5.621774925072501
aF5.623400339939459
aF5.617058183110859
aF5.559093124353165
aF5.549650953107925
aF5.596823740187834
aF5.586067305143763
aF5.473231584763564
aF5.615536600447464
aF5.619406279356521
aF5.573846112985424
aF5.388665558061094
aF5.575076315899398
aF5.487611324082027
as(I4
I5
tp735
(lp736
F0.7567944090882012
aF1.437798586095905
aF4.994610931391802
aF5.617376921483305
aF5.567891620859109
aF5.499813092055473
aF5.5222725612462895
aF4.963903026193759
aF5.465168180460533
aF5.60519506317473
aF5.303092827398082
aF3.702023376963126
aF2.233455049991298
aF2.8312978022624797
aF5.47638358992094
aF5.554574309440323
aF5.582359424289339
aF5.612524891219385
aF5.602935569523507
aF5.589172793249231
aF5.596148400947594
aF5.62340033993946
aF5.623400339939459
aF5.623400339939458
aF5.62340033993946
aF5.621774925072503
aF5.621081777891943
aF5.616468868133858
aF5.614389426592181
aF5.5961484009475955
aF5.6217749250725015
aF5.62340033993946
aF5.6227071927589
aF5.615203190833402
aF5.61675299577179
aF5.599836070063977
aF5.596148400947594
aF5.623400339939458
aF5.623400339939459
aF5.618683597977813
aF5.573690744042696
aF5.604237082198695
aF5.617162015314421
aF5.616638767170655
aF5.549961399682241
aF5.565306595172876
aF5.530068818300688
aF5.588479646068672
aF5.589910076322554
aF5.620099426537082
aF5.6072638986249155
aF5.597998757573656
aF5.61051472835883
aF5.595806586383526
aF5.602044911008567
aF5.6013517638280055
aF5.591972330571982
aF5.5915109302319825
aF5.604237082198697
aF5.599927704096559
aF5.539279062125875
aF5.5884796460686745
aF5.589910076322553
aF5.621774925072504
aF5.616615679713972
aF5.590817783051422
aF5.600173683966006
aF5.621774925072503
aF5.611352059162249
aF5.554526919839388
aF5.592208716814262
aF5.622014045578339
aF5.606979713774907
aF5.599433811780089
aF5.528117971215875
aF5.604237082198693
aF5.610514728358831
aF5.602330749417402
aF5.623400339939458
aF5.614814449230167
aF5.579929068667736
aF5.603543935018134
aF5.606979713774906
aF5.615203190833404
aF5.620099426537083
aF5.615203190833402
aF5.6217749250725015
aF5.617685263458184
aF5.600173683966006
aF5.621774925072502
aF5.6217749250725015
aF5.620099426537082
aF5.613218038399946
aF5.6171620153144195
aF5.62340033993946
aF5.623400339939459
aF5.621081777891942
aF5.612140086013706
aF5.608569074042441
aF5.622707192758899
aF5.615203190833405
aF5.621774925072501
aF5.621774925072502
aF5.623400339939461
aF5.62340033993946
aF5.619406279356521
aF5.606979713774907
aF5.615203190833405
aF5.62340033993946
aF5.623400339939459
aF5.622707192758899
aF5.615203190833406
aF5.621774925072503
aF5.623400339939458
aF5.62201404557834
aF5.606979713774906
aF5.615203190833406
aF5.623400339939458
aF5.622707192758898
aF5.615203190833405
aF5.620099426537082
aF5.6171620153144195
aF5.62340033993946
aF5.62340033993946
aF5.623400339939458
aF5.62340033993946
aF5.621081777891944
aF5.613861101912041
aF5.615203190833405
aF5.621774925072505
aF5.620099426537082
aF5.613218038399944
aF5.613577775966449
aF5.621774925072502
aF5.621081777891942
aF5.6171620153144195
aF5.622707192758898
aF5.615203190833406
aF5.620099426537084
aF5.615203190833403
aF5.623400339939459
aF5.623400339939461
aF5.617685263458185
aF5.597998757573654
aF5.61716201531442
aF5.621752421506456
aF5.599836070063979
aF5.5931430981161485
aF5.608964866208364
aF5.620099426537083
aF5.61716201531442
aF5.62340033993946
aF5.62062775121722
aF5.591510930231985
aF5.603543935018134
aF5.610923690689382
aF5.62201404557834
aF5.602935569523505
aF5.588479646068672
aF5.585272605606946
aF5.604237082198692
aF5.61321803839995
aF5.613218038399944
aF5.6105147283588295
aF5.595113439202967
aF5.592555756649614
aF5.6047865937240875
aF5.616615679713973
aF5.5938362452967105
aF5.613218038399945
aF5.609173894148545
aF5.582833905480604
aF5.570015556186954
aF5.6171620153144195
aF5.623400339939459
aF5.623400339939459
aF5.623400339939459
aF5.620099426537082
aF5.609173894148544
aF5.591510930231984
aF5.606412008591045
aF5.621774925072502
aF5.62340033993946
aF5.623400339939459
aF5.622707192758898
aF5.613218038399945
aF5.61120787553939
aF5.6020449110085675
aF5.604237082198695
aF5.6171620153144195
aF5.623400339939461
aF5.6217749250725015
aF5.623400339939461
aF5.623400339939458
aF5.620099426537081
aF5.613218038399946
aF5.615203190833403
aF5.614990264847017
aF5.591510930231984
aF5.599836070063978
aF5.589885515365027
aF5.602044911008568
aF5.604237082198694
aF5.615203190833404
aF5.618378410638744
aF5.6020449110085675
aF5.602611667331736
aF5.613911185580507
aF5.615701422947883
aF5.586325836974583
aF5.613364849980059
aF5.577158251574765
aF5.555865845619179
aF5.62340033993946
aF5.620149510205546
aF5.623400339939458
aF5.62340033993946
aF5.621774925072503
aF5.623400339939458
aF5.617058183110858
aF5.559093124353162
aF5.549650953107928
aF5.596823740187834
aF5.5860673051437635
aF5.473231584763566
aF5.615536600447463
aF5.6194062793565225
aF5.573846112985424
aF5.388665558061094
aF5.575076315899398
aF5.487611324082029
as(I3
I5
tp737
(lp738
F0.7567944090882013
aF1.4377985860959057
aF4.994610931391803
aF5.617376921483305
aF5.567891620859109
aF5.499813092055475
aF5.52227256124629
aF4.963903026193761
aF5.46516818046053
aF5.6045019159941685
aF5.169368373385454
aF2.350943511377097
aF0.39666508557002855
aF0.9429792790755424
aF5.373805203169203
aF5.554574309440324
aF5.582359424289338
aF5.612524891219385
aF5.602935569523506
aF5.589172793249233
aF5.596148400947594
aF5.62340033993946
aF5.62340033993946
aF5.623400339939459
aF5.623400339939458
aF5.621774925072503
aF5.621081777891943
aF5.61646886813386
aF5.614389426592182
aF5.596148400947593
aF5.621774925072502
aF5.615775720953305
aF5.552460207016507
aF5.615203190833405
aF5.616752995771788
aF5.599836070063979
aF5.5961484009475955
aF5.623400339939459
aF5.623400339939458
aF5.618683597977815
aF5.573690744042697
aF5.604237082198692
aF5.617162015314422
aF5.616638767170655
aF5.549961399682241
aF5.56368118030592
aF5.530068818300687
aF5.588479646068676
aF5.589910076322553
aF5.606666295263653
aF5.524970075970219
aF5.491947238947985
aF5.6105147283588295
aF5.595806586383527
aF5.602044911008566
aF5.601351763828008
aF5.591972330571982
aF5.591510930231983
aF5.604237082198695
aF5.599927704096557
aF5.539279062125874
aF5.588479646068674
aF5.589216929141994
aF5.615536600447464
aF5.616615679713972
aF5.590817783051422
aF5.600173683966006
aF5.621774925072502
aF5.583265979749253
aF5.503566983467917
aF5.5328129654549905
aF5.622014045578339
aF5.606979713774907
aF5.5978083969131305
aF5.528117971215873
aF5.604237082198694
aF5.610514728358828
aF5.602330749417402
aF5.6217749250725015
aF5.614814449230166
aF5.579929068667736
aF5.603543935018134
aF5.606979713774905
aF5.615203190833405
aF5.620099426537082
aF5.615203190833403
aF5.6217749250725
aF5.614434433724272
aF5.600173683966006
aF5.621774925072501
aF5.621774925072504
aF5.620099426537081
aF5.613218038399947
aF5.617162015314418
aF5.62340033993946
aF5.623400339939459
aF5.621081777891942
aF5.612140086013706
aF5.60856907404244
aF5.622707192758899
aF5.615203190833404
aF5.6217749250725015
aF5.609728088160197
aF5.5637412537373985
aF5.62340033993946
aF5.619406279356521
aF5.606979713774907
aF5.6152031908334035
aF5.623400339939461
aF5.623400339939458
aF5.6227071927589005
aF5.615203190833403
aF5.621774925072503
aF5.623400339939459
aF5.622014045578339
aF5.606979713774906
aF5.615203190833406
aF5.623400339939459
aF5.622707192758898
aF5.615203190833405
aF5.620099426537083
aF5.617162015314419
aF5.623400339939458
aF5.623400339939459
aF5.623400339939462
aF5.623400339939457
aF5.621081777891942
aF5.613861101912042
aF5.6152031908334035
aF5.621774925072502
aF5.620099426537081
aF5.613218038399945
aF5.61195236109949
aF5.6217749250725015
aF5.621081777891941
aF5.61716201531442
aF5.622707192758899
aF5.613577775966449
aF5.620099426537083
aF5.6152031908334035
aF5.623400339939458
aF5.623400339939461
aF5.617685263458184
aF5.597998757573655
aF5.617162015314418
aF5.621752421506459
aF5.599836070063978
aF5.585494264793039
aF5.56450658930472
aF5.620099426537082
aF5.617162015314421
aF5.623400339939458
aF5.62062775121722
aF5.591510930231983
aF5.603543935018135
aF5.61092369068938
aF5.62201404557834
aF5.602935569523505
aF5.588479646068673
aF5.585272605606946
aF5.604237082198693
aF5.613218038399947
aF5.613218038399945
aF5.6105147283588295
aF5.595113439202965
aF5.579552437713955
aF5.588078418379794
aF5.578395727435369
aF5.592210830429754
aF5.613218038399945
aF5.6084807469679845
aF5.576595580855566
aF5.570015556186954
aF5.617162015314419
aF5.623400339939459
aF5.623400339939459
aF5.62340033993946
aF5.620099426537082
aF5.609173894148544
aF5.591510930231984
aF5.606412008591047
aF5.621774925072501
aF5.621774925072502
aF5.610397021003802
aF5.621081777891942
aF5.6132180383999435
aF5.611207875539391
aF5.602044911008567
aF5.604237082198696
aF5.6171620153144195
aF5.623400339939459
aF5.621774925072503
aF5.62340033993946
aF5.623400339939459
aF5.620099426537081
aF5.613218038399944
aF5.615203190833405
aF5.614990264847016
aF5.591510930231985
aF5.5977566285222995
aF5.5711705414899075
aF5.602044911008566
aF5.604237082198697
aF5.615203190833403
aF5.618378410638744
aF5.602044911008568
aF5.602611667331738
aF5.6139111855805055
aF5.615701422947885
aF5.586325836974581
aF5.613364849980058
aF5.577158251574766
aF5.555865845619176
aF5.623400339939461
aF5.620149510205545
aF5.623400339939459
aF5.623400339939458
aF5.621774925072502
aF5.623400339939458
aF5.617058183110857
aF5.559093124353163
aF5.5496509531079266
aF5.596823740187836
aF5.5860673051437635
aF5.473231584763565
aF5.615536600447463
aF5.6194062793565225
aF5.573846112985424
aF5.388665558061094
aF5.575076315899398
aF5.487611324082028
as(I7
I5
tp739
(lp740
F0.7577491803406433
aF1.474187877095598
aF5.118170592517395
aF5.620127006639499
aF5.5845316580269815
aF5.522606908199459
aF5.545702808492816
aF5.079094400031571
aF5.504750212763305
aF5.615896507237208
aF5.54672968865252
aF5.596092424792362
aF5.623400339939459
aF5.616589654417767
aF5.546829383106618
aF5.579350229276222
aF5.593836245296711
aF5.613218038399945
aF5.611207875539391
aF5.599836070063978
aF5.596148400947593
aF5.62340033993946
aF5.62340033993946
aF5.623400339939458
aF5.623400339939459
aF5.621774925072502
aF5.621081777891942
aF5.617162015314422
aF5.621752421506457
aF5.606412008591047
aF5.6217749250725015
aF5.623400339939459
aF5.6227071927589
aF5.615203190833406
aF5.620099426537082
aF5.609173894148544
aF5.596148400947592
aF5.623400339939461
aF5.623400339939459
aF5.620627751217218
aF5.591510930231984
aF5.6042370821986935
aF5.617162015314422
aF5.618683597977814
aF5.568798993168779
aF5.57010555624641
aF5.5517557113759555
aF5.591510930231984
aF5.606412008591044
aF5.620099426537082
aF5.611207875539391
aF5.606412008591046
aF5.618378410638745
aF5.602044911008566
aF5.602044911008566
aF5.603543935018135
aF5.602935569523505
aF5.591510930231985
aF5.606412008591047
aF5.608788578712036
aF5.5481159830136395
aF5.599836070063979
aF5.596148400947594
aF5.621774925072503
aF5.618378410638744
aF5.6020449110085675
aF5.606412008591047
aF5.623400339939457
aF5.6180250615317755
aF5.564972556221691
aF5.598447041439301
aF5.622707192758898
aF5.613861101912046
aF5.600126958960648
aF5.537011691649969
aF5.613218038399945
aF5.6112078755393915
aF5.608569074042441
aF5.623400339939459
aF5.6166156797139735
aF5.591510930231984
aF5.604237082198694
aF5.615203190833404
aF5.621774925072503
aF5.62009942653708
aF5.615203190833404
aF5.6217749250725015
aF5.618378410638744
aF5.60856907404244
aF5.62340033993946
aF5.621774925072504
aF5.620099426537082
aF5.6132180383999435
aF5.617162015314421
aF5.623400339939459
aF5.623400339939459
aF5.621774925072504
aF5.620099426537084
aF5.6171620153144195
aF5.622707192758899
aF5.615203190833404
aF5.621774925072502
aF5.6217749250725015
aF5.623400339939459
aF5.623400339939458
aF5.620099426537081
aF5.615203190833406
aF5.621774925072501
aF5.623400339939458
aF5.623400339939458
aF5.6227071927589
aF5.6152031908334035
aF5.6217749250725015
aF5.623400339939461
aF5.622707192758903
aF5.6152031908334035
aF5.621774925072502
aF5.623400339939455
aF5.622707192758902
aF5.615203190833404
aF5.620099426537081
aF5.61716201531442
aF5.623400339939457
aF5.623400339939459
aF5.623400339939461
aF5.623400339939458
aF5.62340033993946
aF5.622707192758897
aF5.615203190833405
aF5.621774925072502
aF5.620099426537082
aF5.613218038399945
aF5.615203190833404
aF5.621774925072502
aF5.623400339939462
aF5.623400339939459
aF5.622707192758897
aF5.615203190833407
aF5.62009942653708
aF5.615203190833404
aF5.623400339939459
aF5.623400339939462
aF5.620099426537082
aF5.6132180383999435
aF5.617162015314423
aF5.621752421506456
aF5.602044911008567
aF5.604237082198696
aF5.615203190833404
aF5.620099426537082
aF5.6171620153144195
aF5.62340033993946
aF5.620627751217221
aF5.593836245296711
aF5.613218038399946
aF5.617162015314419
aF5.6227071927589005
aF5.611207875539388
aF5.599836070063982
aF5.591510930231984
aF5.6042370821986935
aF5.615203190833403
aF5.620099426537084
aF5.611207875539388
aF5.601351763828008
aF5.597998757573654
aF5.615203190833406
aF5.616615679713972
aF5.5938362452967105
aF5.615203190833404
aF5.616615679713973
aF5.58445932034756
aF5.572523740933648
aF5.623400339939457
aF5.62340033993946
aF5.623400339939459
aF5.623400339939458
aF5.620099426537082
aF5.609173894148545
aF5.5938362452967105
aF5.615203190833406
aF5.621774925072501
aF5.623400339939459
aF5.62340033993946
aF5.622707192758899
aF5.613218038399947
aF5.613218038399946
aF5.611207875539391
aF5.604237082198693
aF5.617162015314423
aF5.623400339939458
aF5.6217749250725015
aF5.623400339939459
aF5.623400339939461
aF5.6227071927589
aF5.613218038399947
aF5.6152031908334035
aF5.618378410638743
aF5.602044911008567
aF5.599836070063978
aF5.593836245296711
aF5.61120787553939
aF5.604237082198694
aF5.615203190833404
aF5.620099426537081
aF5.611207875539391
aF5.602611667331739
aF5.615536600447462
aF5.618501591772545
aF5.603161178857131
aF5.6167529957717885
aF5.589863913081111
aF5.562104170244217
aF5.62340033993946
aF5.6217749250725015
aF5.623400339939461
aF5.62340033993946
aF5.62340033993946
aF5.623400339939456
aF5.619002336350264
aF5.577907577211268
aF5.561075762093676
aF5.616898680471632
aF5.598354115864134
aF5.510154706853236
aF5.6217749250725015
aF5.620099426537082
aF5.588264797111873
aF5.448872703599
aF5.592129820308136
aF5.501652710159511
as(I8
I7
tp741
(lp742
F0.44290010280279063
aF0.939212069322549
aF2.8126865030754207
aF2.535270259336383
aF1.8838349401566632
aF2.2441186042278076
aF2.614450822053158
aF2.4597175640623363
aF0.9211155878057199
aF0.18551032375760482
aF2.00763244511097
aF5.4603783743726515
aF5.623400339939457
aF5.4307330742065005
aF3.5960394816858945
aF3.4431319240063454
aF3.221912382463378
aF3.3591301601245482
aF3.4032186423257618
aF3.6735487854582645
aF3.876575267316585
aF2.7583219718316556
aF2.807865656670152
aF2.429825768849833
aF2.7557782079073214
aF2.708934625437353
aF2.7466385700302305
aF2.154828178011013
aF2.5002437728663054
aF3.040037111491417
aF3.0797576276343577
aF2.8921176845692793
aF3.015015693702328
aF3.0097709758730824
aF2.855174599541089
aF2.8145960783470563
aF3.068623919309557
aF2.748231058863343
aF2.9046392620677657
aF2.5093034460390378
aF3.2950930354201686
aF3.4387035356612263
aF2.950254663783142
aF2.910645615141395
aF3.138734010894779
aF3.397461117203419
aF4.019021832972763
aF2.9181039489892036
aF3.6301044938590117
aF2.4952628831378343
aF3.359165074823416
aF2.507714699026374
aF3.3723294006689035
aF3.31906980094414
aF3.1993848624168595
aF3.1864598983218317
aF3.0687348937660417
aF2.5910163535392337
aF3.0235423408747106
aF3.016607582221172
aF3.538783972500406
aF3.0251107237596475
aF3.0154442756054953
aF2.609645109457291
aF2.831280513176918
aF2.711241329506872
aF2.8776666070956565
aF3.017397668288181
aF2.7909930356795987
aF3.5640998863699456
aF3.2576504824805603
aF2.6783319142676714
aF3.504511739901453
aF3.157181328494527
aF4.57856518940093
aF3.815501124351642
aF2.6970298562614663
aF1.9863769551444008
aF2.5559036439889065
aF2.787189402968781
aF3.3464748101393726
aF2.3612062531963947
aF2.5990075878557763
aF2.604579245886585
aF1.513314917811596
aF2.649079982585417
aF2.812276869886393
aF2.1232790513265978
aF2.3815245049599074
aF1.9589994604151115
aF2.7176162983975707
aF2.6959075247758366
aF2.153387470427156
aF2.1707983434074474
aF2.792034099314996
aF2.142574728881298
aF2.436213824454277
aF2.7901761897696384
aF3.0360632970819204
aF2.792484407517149
aF3.019580598145758
aF3.072547696572704
aF2.9586599228085095
aF2.9864800970738425
aF2.866094823470834
aF2.911814489823584
aF3.207353424148876
aF2.3269988338976746
aF2.6237010454463623
aF3.1308286806245262
aF3.0286357246806546
aF2.6271569881508086
aF3.144343698986897
aF2.686006554189812
aF2.8433557813362635
aF3.2684155580301746
aF3.099556590002083
aF3.0493729356922636
aF2.5092821821648563
aF2.9528669661862557
aF3.2791138842547984
aF3.246974774573896
aF2.651660476587234
aF2.432411914140501
aF2.546640093994107
aF2.6122420378510545
aF3.1142346520017647
aF3.282433773277208
aF3.015036684326091
aF2.964150046989061
aF2.7262914185384584
aF3.352220231167086
aF3.274062741383742
aF2.9013554868755986
aF3.218717012973607
aF2.6285527132811266
aF2.670557982220898
aF3.1630201811834096
aF2.856291106002421
aF2.7647946383723867
aF2.294421832715108
aF2.786093731747609
aF3.052810186605756
aF3.3745085836494226
aF2.809287220628068
aF3.0213776133075543
aF2.643107882711105
aF3.2724980660501735
aF2.6517001483621274
aF2.6602661211626835
aF2.767456914283017
aF2.894735242183529
aF2.5879895420085104
aF3.677570818115742
aF2.7239534910065313
aF2.5932147046828145
aF3.01545962591584
aF3.0910696535144937
aF3.1441552233957895
aF2.9421952296101037
aF3.0824291189192334
aF2.8242514221129666
aF3.330962804725266
aF3.1388985931276467
aF3.4566093501466875
aF3.8607279710652005
aF3.5511630714583244
aF3.0044879722349003
aF2.6576142971077155
aF3.365329560823572
aF2.976084554866916
aF3.1266530217050765
aF2.8628090995570314
aF2.9541813282778016
aF2.128850041202617
aF2.082411391369978
aF2.3670307714683516
aF2.896522863296867
aF2.440501029483716
aF3.033866841554246
aF2.93317750222171
aF2.94434262552857
aF2.4512245817926956
aF2.4347597626497803
aF2.7869835722521046
aF2.9452041794888375
aF2.392736010617062
aF2.3191213732266283
aF2.4133213222639105
aF2.6894407485493765
aF1.7009347311074405
aF2.935720611893686
aF1.7420769387574913
aF2.4987324260592585
aF2.861381502009474
aF3.3383110372312292
aF2.861816119214797
aF3.0641698429922934
aF2.8359638945979855
aF2.1404850281656302
aF2.716323111886754
aF2.6921588915081234
aF2.272018362338503
aF2.3226900366944108
aF1.994347631584613
aF2.2189279966485516
aF2.951227119436886
aF2.433365818814506
aF2.730495658870542
aF2.59702837981279
aF1.6813636720738057
aF1.946518257568764
aF1.7749299326065242
aF2.025776222016572
aF2.657630056350624
aF2.3598785214404097
aF2.598849075468706
aF2.6334892174232905
aF1.8852242883708497
aF2.3166571601237713
aF2.5069177536582035
aF2.0771577002743697
aF2.4441646410689213
aF1.8609776102142208
aF1.8678152455251995
aF1.0300892521513942
aF2.086131999091908
aF2.403006766366993
aF2.1894889427494966
aF2.548014118451063
aF2.5775711916275625
as(I6
I5
tp743
(lp744
F0.7567944090882012
aF1.4583146853360602
aF4.994610931391804
aF5.617376921483303
aF5.567891620859109
aF5.499813092055472
aF5.522272561246291
aF4.963903026193757
aF5.465168180460531
aF5.60519506317473
aF5.167301381639548
aF2.2464913012672794
aF0.0
aF0.8034122237396168
aF5.417662892243727
aF5.554574309440322
aF5.58235942428934
aF5.612524891219383
aF5.602935569523506
aF5.58917279324923
aF5.596148400947593
aF5.623400339939459
aF5.62340033993946
aF5.62340033993946
aF5.623400339939459
aF5.621774925072502
aF5.621081777891942
aF5.616468868133858
aF5.61438942659218
aF5.596148400947594
aF5.621774925072505
aF5.623400339939457
aF5.6227071927589
aF5.615203190833407
aF5.616752995771786
aF5.599836070063978
aF5.596148400947594
aF5.623400339939457
aF5.62340033993946
aF5.618683597977816
aF5.573690744042695
aF5.604237082198694
aF5.617162015314419
aF5.616638767170658
aF5.549961399682238
aF5.5653065951728795
aF5.530068818300686
aF5.588479646068671
aF5.589910076322555
aF5.62009942653708
aF5.607263898624916
aF5.597998757573654
aF5.610514728358831
aF5.595806586383526
aF5.602044911008566
aF5.601351763828006
aF5.5919723305719815
aF5.591510930231985
aF5.604237082198696
aF5.599927704096556
aF5.539279062125874
aF5.5884796460686745
aF5.589910076322552
aF5.621774925072502
aF5.616615679713972
aF5.590817783051426
aF5.600173683966005
aF5.621774925072503
aF5.611352059162249
aF5.554526919839386
aF5.592208716814261
aF5.62201404557834
aF5.606979713774906
aF5.599433811780089
aF5.528117971215872
aF5.604237082198694
aF5.61051472835883
aF5.602330749417401
aF5.62340033993946
aF5.614814449230165
aF5.5799290686677345
aF5.603543935018136
aF5.60697971377491
aF5.615203190833403
aF5.620099426537082
aF5.6152031908334035
aF5.6217749250725015
aF5.6176852634581875
aF5.600173683966004
aF5.621774925072502
aF5.621774925072505
aF5.62009942653708
aF5.613218038399947
aF5.6171620153144195
aF5.623400339939458
aF5.623400339939457
aF5.621081777891942
aF5.6121400860137065
aF5.60856907404244
aF5.622707192758899
aF5.615203190833405
aF5.6217749250725
aF5.621774925072506
aF5.623400339939458
aF5.62340033993946
aF5.61940627935652
aF5.606979713774905
aF5.615203190833405
aF5.623400339939461
aF5.623400339939457
aF5.6227071927589
aF5.615203190833405
aF5.621774925072501
aF5.623400339939459
aF5.62201404557834
aF5.606979713774905
aF5.615203190833405
aF5.623400339939458
aF5.622707192758899
aF5.615203190833405
aF5.620099426537079
aF5.61716201531442
aF5.62340033993946
aF5.623400339939459
aF5.62340033993946
aF5.623400339939461
aF5.621081777891941
aF5.6138611019120415
aF5.6152031908334035
aF5.621774925072502
aF5.620099426537082
aF5.613218038399946
aF5.613577775966445
aF5.6217749250725015
aF5.621081777891945
aF5.61716201531442
aF5.622707192758899
aF5.615203190833402
aF5.620099426537082
aF5.6152031908334035
aF5.623400339939459
aF5.62340033993946
aF5.617685263458186
aF5.597998757573655
aF5.617162015314419
aF5.621752421506456
aF5.599836070063978
aF5.593143098116149
aF5.608964866208365
aF5.62009942653708
aF5.6171620153144195
aF5.623400339939458
aF5.620627751217219
aF5.591510930231984
aF5.603543935018138
aF5.610923690689377
aF5.62201404557834
aF5.602935569523504
aF5.588479646068674
aF5.585272605606944
aF5.604237082198694
aF5.613218038399944
aF5.613218038399946
aF5.6105147283588295
aF5.595113439202967
aF5.592555756649611
aF5.6047865937240875
aF5.616615679713973
aF5.59383624529671
aF5.613218038399945
aF5.609173894148547
aF5.582833905480603
aF5.570015556186952
aF5.61716201531442
aF5.623400339939457
aF5.623400339939462
aF5.623400339939459
aF5.62009942653708
aF5.609173894148545
aF5.5915109302319825
aF5.606412008591046
aF5.621774925072501
aF5.623400339939459
aF5.623400339939459
aF5.622707192758898
aF5.613218038399948
aF5.611207875539389
aF5.602044911008567
aF5.6042370821986935
aF5.617162015314421
aF5.623400339939455
aF5.621774925072503
aF5.623400339939458
aF5.623400339939458
aF5.620099426537084
aF5.613218038399944
aF5.615203190833405
aF5.614990264847013
aF5.591510930231984
aF5.599836070063976
aF5.589885515365028
aF5.602044911008567
aF5.604237082198695
aF5.615203190833404
aF5.618378410638745
aF5.602044911008566
aF5.60261166733174
aF5.613911185580504
aF5.615701422947884
aF5.586325836974581
aF5.613364849980058
aF5.577158251574767
aF5.555865845619175
aF5.62340033993946
aF5.620149510205543
aF5.623400339939459
aF5.623400339939461
aF5.621774925072501
aF5.623400339939459
aF5.617058183110859
aF5.5590931243531605
aF5.5496509531079266
aF5.596823740187835
aF5.58606730514376
aF5.473231584763566
aF5.615536600447464
aF5.619406279356522
aF5.573846112985423
aF5.388665558061091
aF5.5750763158993974
aF5.487611324082027
as(I6
I8
tp745
(lp746
F0.44290010280279063
aF0.9137114942854277
aF2.8189248277004606
aF2.4652854522568792
aF1.5343223715445973
aF2.2441186042278076
aF2.614450822053159
aF2.370236188589752
aF0.8933045957228206
aF0.17195256748547574
aF1.5350537632777668
aF1.8940875760671458
aF0.0
aF0.5841725971190029
aF3.072938504919797
aF3.2124448135284633
aF2.9774881673233353
aF3.0173225402061417
aF3.1944725046609657
aF3.334701613574713
aF3.5383920592771716
aF2.58793746280954
aF2.7311356823433943
aF2.3349167173222694
aF2.6902862419905955
aF2.60367958839706
aF2.6471126767020725
aF2.1347727702090924
aF2.443539451256767
aF2.9594344130884407
aF3.0331983203037507
aF2.8578116263244002
aF3.0088141450371944
aF2.955051495810562
aF2.775742975436526
aF2.784549918306235
aF3.006291161103477
aF2.707620415923644
aF2.8100835665144315
aF2.4337094227879614
aF3.1774155185832806
aF3.2412729088460006
aF2.8684748349514413
aF2.7573982013397407
aF2.9742823931642053
aF3.120739262231848
aF3.71256217649022
aF2.542656431958606
aF3.224507627063989
aF2.4563660659446094
aF3.170294771732931
aF2.3480412737210385
aF3.1684498316079446
aF3.147984044073562
aF3.0304709952712434
aF3.052260352815681
aF2.9540764705084155
aF2.5342539114032925
aF2.8762835098733808
aF2.875564241066706
aF3.2505054484034934
aF2.8478896016116084
aF2.830872608854425
aF2.5357794285303448
aF2.75873644179242
aF2.670516761255327
aF2.759954711882599
aF2.875307697076211
aF2.4589148561026817
aF3.283925739938935
aF3.0782488494725704
aF2.631456145801161
aF3.233581163175439
aF2.875724535715291
aF3.678354648364386
aF3.323181798505296
aF2.5646622098607263
aF1.7638500778010595
aF2.064704947101179
aF2.436575186081609
aF2.942694952127222
aF2.3090457359890677
aF2.493272413618122
aF2.4798413785053675
aF1.5022855532194963
aF2.564436074047489
aF2.7463838102095326
aF2.0404542477051106
aF2.289603196393543
aF1.617964451478792
aF2.302947294849692
aF2.543526911049875
aF1.8605812865348321
aF2.1405843937788687
aF2.6631418014439534
aF2.083107167004908
aF2.2638652980539753
aF2.714699567735506
aF3.0108186847888057
aF2.726943782818938
aF2.878964913643252
aF2.9732418997142753
aF2.8681242494656143
aF2.9026311722814975
aF2.564499001518813
aF2.7421719994817466
aF3.0786524073921324
aF2.309501454743026
aF2.622768777759965
aF3.11972286789577
aF3.0123913628601033
aF2.586969844691822
aF3.104199343807971
aF2.6094879872595103
aF2.7900703095978487
aF3.1562513435954638
aF2.8958523870512676
aF2.9542031722483415
aF2.1681915519682518
aF2.9232668169440825
aF3.216539956078127
aF3.0846755375666
aF2.6107711282630546
aF2.4386502387655398
aF2.541713765724772
aF2.5879737816462707
aF3.0688434245600993
aF3.240056333388564
aF2.965654136017936
aF2.921228079766769
aF2.626658006503242
aF3.265405443452516
aF3.183019071154393
aF2.8361983563765913
aF3.061696491214437
aF2.5861479636656783
aF2.6371990347165846
aF2.9959665896918435
aF2.6687401596317337
aF2.664243698546524
aF2.2434399265895983
aF2.7593596586435645
aF2.98423231855237
aF3.2435190250526404
aF2.435603191446479
aF2.9534253763685916
aF2.6057714043977613
aF3.1232254745421564
aF2.6554965001813464
aF2.6227958036316155
aF2.7374618982334784
aF2.8379714896379276
aF2.5040651016109234
aF3.357595704040958
aF2.682257065349638
aF2.53179412029123
aF2.8620769697943365
aF2.924117024703265
aF3.0249872067087367
aF2.8368454085670662
aF2.7985421395065657
aF2.6909817841795682
aF3.0981321631099825
aF3.0023941002297687
aF3.2289767655903545
aF3.559853497148361
aF3.3013910871152676
aF2.8833333802509986
aF2.5879308807452954
aF3.2864756047401613
aF2.957733383708418
aF3.131398177656637
aF2.785849076766749
aF2.8968940617300336
aF2.1094916049676535
aF2.0416215732041465
aF2.3146138356729193
aF2.830033059163159
aF2.4134794393950947
aF2.9902017431172796
aF2.839140974684653
aF2.7390313116734184
aF2.4299266885018027
aF2.399774333382495
aF2.764264352526136
aF2.8677488690074036
aF2.334096565517538
aF2.2781723591887433
aF2.398419607342753
aF2.5414455684497175
aF1.5460563094425521
aF2.9146510213716272
aF1.742076938757491
aF2.496174743505904
aF2.8488543702431817
aF3.2072117412369336
aF2.7862271099768976
aF2.927555349263775
aF2.8368719479474307
aF2.107620504828202
aF2.582955794158767
aF2.6191416856361998
aF2.2417823327803252
aF2.3070700579034784
aF1.8530746752856615
aF2.206165508989637
aF2.932067071419712
aF2.4247728775425257
aF2.730495658870542
aF2.566352768162359
aF1.3947867515662016
aF1.946518257568764
aF1.774929932606524
aF2.025776222016572
aF2.6576300563506243
aF2.359878521440409
aF2.5988490754687055
aF2.6334892174232896
aF1.8852242883708497
aF2.3166571601237713
aF2.506917753658204
aF2.077157700274369
aF2.4441646410689213
aF1.860977610214222
aF1.8678152455252
aF1.0300892521513942
aF2.086131999091908
aF2.4030067663669934
aF2.189488942749496
aF2.548014118451063
aF2.577571191627562
as(I8
I3
tp747
(lp748
F0.4429001028027907
aF0.9013491308485624
aF2.716794635792517
aF2.46459230507632
aF1.525531440902577
aF2.2263924528282053
aF2.6005225257265305
aF2.2492871724074472
aF0.8144299176913244
aF0.1650557064143972
aF1.4461117936682797
aF1.859124426085275
aF0.39666508557002855
aF0.7064845844219924
aF2.9136313247081236
aF3.0993083177501837
aF2.8666008648368027
aF2.930341158495354
aF3.1290610815350344
aF3.240335271432739
aF3.4791627545879367
aF2.554919319787009
aF2.7209032971354166
aF2.3195719944992783
aF2.6758282646934557
aF2.58647967678406
aF2.632677202970979
aF2.1302061795062586
aF2.4355558963964383
aF2.9310223345879227
aF2.9935453215439436
aF2.850187007338241
aF2.991185411932581
aF2.9054952960072655
aF2.7446035495952823
aF2.776561797140361
aF2.9719393661723656
aF2.6914262323940266
aF2.7915859376116257
aF2.417131794405964
aF3.1073135884415755
aF3.1902924778749164
aF2.821704185465062
aF2.7005424601655523
aF2.9004575422139016
aF3.022211599913923
aF3.480566177655755
aF2.4653794329499528
aF3.146212151908106
aF2.4415362439124926
aF3.0997733666224625
aF2.3067447772410365
aF3.0690299639574756
aF3.0493651284498533
aF2.978912933494393
aF2.9715804615032724
aF2.8888491760586024
aF2.497916103089062
aF2.8274280473558093
aF2.846866845797118
aF3.1529183831141316
aF2.7521677751023566
aF2.7192974894621327
aF2.4895846951326557
aF2.736001091683241
aF2.6318357124049
aF2.73646490268458
aF2.8431065354233085
aF2.4146649795503703
aF3.1295314554836087
aF3.0255864433515507
aF2.6237729313680354
aF3.1617351729855434
aF2.8251477335588806
aF3.446338388012105
aF3.1877218492271657
aF2.5351751971809033
aF1.7350434623010629
aF2.0441748964113717
aF2.3862690246797134
aF2.888975663360957
aF2.291763299309405
aF2.441762736093652
aF2.4281534562985017
aF1.4978730476119304
aF2.5364417914926953
aF2.731888067542063
aF2.028933681630633
aF2.2669081910045272
aF1.6172713042982325
aF2.2906400344055826
aF2.514253765025127
aF1.855848561408418
aF2.11918139364275
aF2.663141801443953
aF2.082414019824349
aF2.2559059575305995
aF2.6995106778874773
aF2.9976989720266305
aF2.7225444673065815
aF2.8547117008751797
aF2.964712593144137
aF2.8511417564847394
aF2.8843119905723045
aF2.5621303558028328
aF2.726038523649187
aF3.055957402003117
aF2.3095014547430255
aF2.6170992186416075
aF3.0983822503115186
aF3.0100227171441234
aF2.57117440455205
aF3.097317955670835
aF2.60948798725951
aF2.789377162417288
aF3.1444436271889926
aF2.8867376987125075
aF2.9363723834796347
aF2.168191551968252
aF2.920686630824683
aF3.203715034257453
aF3.0491519225976567
aF2.602884885205012
aF2.4238189728685198
aF2.5417137657247726
aF2.5847229519123562
aF3.0638214952593845
aF3.223577149058543
aF2.9459650014894585
aF2.883135297606685
aF2.6025600997510887
aF3.2204200122851945
aF3.1679310264889105
aF2.8091699611609093
aF3.023652314891594
aF2.5717124899345833
aF2.6315294755982235
aF2.974983137437672
aF2.660997258679793
aF2.6098184324954437
aF2.2326741989724543
aF2.737951713912816
aF2.9731582314592253
aF3.17825060669962
aF2.4231888342548915
aF2.9447304279426896
aF2.5698602013265592
aF3.088742006727956
aF2.6206038450339104
aF2.589480398105352
aF2.71632905387833
aF2.808609148978435
aF2.483328517396923
aF3.2849112471381887
aF2.644957999115892
aF2.493411514904041
aF2.8379105993973797
aF2.8668941661705887
aF2.949692840764275
aF2.772148362343469
aF2.7142277050822448
aF2.6508287147951606
aF3.0596739919976503
aF2.972520848519796
aF3.1307570208298734
aF3.470204533217444
aF3.2437043759270376
aF2.85932287777655
aF2.5546888546628375
aF3.2479549541187014
aF2.9471079621225766
aF3.0752481666022446
aF2.7595386453426367
aF2.8777902414684315
aF2.1068838387458357
aF2.0363163179578367
aF2.290592497862232
aF2.780547247786051
aF2.3867129219258505
aF2.9231178983617507
aF2.8267655530943214
aF2.7356848809081242
aF2.417945601438093
aF2.388959153598796
aF2.7547251144987195
aF2.853793616470479
aF2.310042349897057
aF2.2748009123941637
aF2.3726295905776826
aF2.5134708340745027
aF1.5429945165460113
aF2.8900094903849984
aF1.734213199265494
aF2.4931630342778264
aF2.8331678904532405
aF3.1870801590860465
aF2.739296601501047
aF2.91298577949497
aF2.785650034215213
aF2.0752528284526086
aF2.4891745012128443
aF2.560376679014695
aF2.2259245100886877
aF2.299206318411481
aF1.8516883809245415
aF2.182960222599596
aF2.895861887635828
aF2.41063877343614
aF2.724180454229851
aF2.5390448530152607
aF1.3940936043856416
aF1.9389917520772242
aF1.7659489764052727
aF2.023817397535556
aF2.6576300563506248
aF2.359878521440409
aF2.5988490754687064
aF2.63348921742329
aF1.88522428837085
aF2.3147130068843653
aF2.4883035336570365
aF2.0754822017389487
aF2.433405019709726
aF1.846469890568299
aF1.8557218951693861
aF1.0211082959501432
aF2.084173174610892
aF2.3949441238014635
aF2.1454651282959585
aF2.53562908222491
aF2.558503954624737
as(I4
I6
tp749
(lp750
F0.24894480585888243
aF0.458186678502116
aF0.9440606723695639
aF0.07734010012178276
aF0.18876812404082294
aF0.3778590164676292
aF0.24954544505646992
aF0.9959934789560861
aF0.5315978236623666
aF0.09197624496927267
aF0.9228529639608402
aF2.5209221591199973
aF2.233455049991298
aF2.4386581697083343
aF1.2164967205810617
aF0.9559425910357603
aF0.8488414215027977
aF0.8656694063123536
aF0.8182562658249869
aF0.8381316875958307
aF0.6595810895412946
aF0.7193970121019793
aF0.46559623246964577
aF0.3120244187041954
aF0.2003897738935261
aF0.24943311904696028
aF0.2604870236328643
aF0.2697968547863709
aF0.4307324487131396
aF0.5276663856646099
aF0.5127351474839514
aF0.21799351291314956
aF0.29286196299512696
aF0.46587785067309956
aF0.5371717179782936
aF0.368486679724952
aF0.5394698259311895
aF0.34232165481962906
aF0.5615494048902372
aF0.42707475406165646
aF0.7042225547134698
aF0.6854933754410318
aF0.5075687074877862
aF0.649337976845885
aF0.722130784968089
aF0.8330819114172029
aF1.121898703459003
aF0.7148535474626092
aF0.9152566827651917
aF0.3665285808809322
aF0.8043043023403206
aF0.6453097680920298
aF0.7958182625695305
aF0.9019991438062176
aF0.668077094752218
aF0.6871259037656151
aF0.7815416185521399
aF0.5174088016728841
aF0.6370231386211589
aF0.6521416626996898
aF0.8925672691682274
aF0.7389227569006501
aF0.894623070894719
aF0.5171220113218732
aF0.5095983291837981
aF0.44847775913013965
aF0.5843056451305311
aF0.5409663996168848
aF0.6234050211231795
aF0.9642396092679569
aF0.8958604253682787
aF0.27877025516470005
aF0.8475799371937046
aF0.6845015053747044
aF1.0695035245529039
aF1.049932258965306
aF0.6950052481764845
aF0.35443499740106166
aF0.30964804706966204
aF0.6008317456642701
aF0.7168778234637277
aF0.464828973082279
aF0.6475834829616434
aF0.5780570476179357
aF0.1482750850253065
aF0.4170069413903517
aF0.44334851214464427
aF0.24050135095454933
aF0.3190924038079256
aF0.13800110697632179
aF0.2900330325564125
aF0.48765432936369746
aF0.24126410962087874
aF0.35708930525706106
aF0.2129674137655853
aF0.21343390013828734
aF0.3042351115051645
aF0.30623840762523324
aF0.3053598013488736
aF0.14944650775662816
aF0.39083290974338875
aF0.4943721871823283
aF0.28931536533634544
aF0.4172415865979323
aF0.26730751031399325
aF0.28611659499207764
aF0.5181482503300947
aF0.09632515686920659
aF0.16961867111597734
aF0.2653999440883663
aF0.14779349769388309
aF0.2470881386819322
aF0.3068792856797245
aF0.2900236743385482
aF0.2074298565011475
aF0.4138114076277618
aF0.3798739913769621
aF0.34823674231759527
aF0.1435582906862062
aF0.31804545351751373
aF0.23675993338414075
aF0.38988227518899893
aF0.17741039902443817
aF0.12173266693901937
aF0.14165239673258517
aF0.3020557398764391
aF0.1959375894719906
aF0.42392725763154027
aF0.35872986083962627
aF0.482220228616194
aF0.43800239044880857
aF0.5120992089699332
aF0.5112823568645891
aF0.49184757773555804
aF0.5748278429489291
aF0.33757426610199903
aF0.2732287466791146
aF0.5249140668752309
aF0.31318990815193404
aF0.4921361927698349
aF0.3056672439468995
aF0.34766517196307584
aF0.4138843040315111
aF0.6324305306817938
aF0.2990923202473244
aF0.397666075406011
aF0.45332245858463044
aF0.5274252835131368
aF0.35081691070612175
aF0.4639735933743137
aF0.37902631695200373
aF0.5547404697970727
aF0.4217868795987975
aF0.8669397487487749
aF0.4896156134815447
aF0.48092686919541733
aF0.6132525676703235
aF0.71196391794855
aF0.651915680304128
aF0.7102760355510622
aF0.7546626596865661
aF0.6519945857007565
aF0.7136163387297159
aF0.5522071364127364
aF0.8410754373212977
aF0.886840860666614
aF0.7623759230475564
aF0.48251451118473326
aF0.49597820493312805
aF0.5472405014152205
aF0.31142831684111977
aF0.6101435184107994
aF0.4537532190761785
aF0.587297809929422
aF0.312199706410472
aF0.36127498144309955
aF0.4633654384922676
aF0.4552856839392836
aF0.35713731901637646
aF0.6349705450918931
aF0.3446644597567482
aF0.3157606078782916
aF0.25215761199224557
aF0.2952614055190825
aF0.3213691702581245
aF0.34745624437202427
aF0.47976954733128413
aF0.3459708785510342
aF0.35669162059378917
aF0.4339368865657039
aF0.12905751825340253
aF0.4397341790780003
aF0.1929485778353352
aF0.14759608039337216
aF0.3430701002603301
aF0.4773116712163935
aF0.3579582859513637
aF0.2805505339104888
aF0.5062935270025491
aF0.42251747808582835
aF0.6920463010477657
aF0.6845873857921893
aF0.25322788231976995
aF0.2790928731480573
aF0.06853403144792194
aF0.30870970702566497
aF0.40872445153574744
aF0.2232559857975705
aF0.18202766356739986
aF0.29510272254571407
aF0.10207998890300228
aF0.1729279353520862
aF0.2564979095442693
aF0.09104078923593453
aF0.0916940873151231
aF0.05759247889013249
aF0.017199803584415897
aF0.12043462045318841
aF0.06188828359114164
aF0.06816057362480037
aF0.27253463068705797
aF0.27287801261040323
aF0.22322419077925645
aF0.22262244234093903
aF0.35249793813372504
aF0.13864773295482188
aF0.09329832061984676
aF0.18192670234993757
aF0.5453052695943736
aF0.19205323365951946
aF0.3892315258805463
as(I7
I8
tp751
(lp752
F0.44290010280279063
aF0.9392120693225489
aF2.8126865030754202
aF2.535270259336383
aF1.883834940156663
aF2.2441186042278067
aF2.61445082205316
aF2.4597175640623368
aF0.9211155878057198
aF0.18551032375760482
aF2.007632445110969
aF5.460378374372654
aF5.62340033993946
aF5.430733074206501
aF3.5960394816858945
aF3.4431319240063467
aF3.221912382463378
aF3.3591301601245465
aF3.4032186423257613
aF3.6735487854582636
aF3.876575267316586
aF2.758321971831656
aF2.807865656670152
aF2.4298257688498324
aF2.75577820790732
aF2.7089346254373523
aF2.746638570030229
aF2.154828178011012
aF2.500243772866306
aF3.0400371114914155
aF3.0797576276343572
aF2.8921176845692793
aF3.0150156937023276
aF3.009770975873082
aF2.8551745995410895
aF2.814596078347057
aF3.0686239193095575
aF2.748231058863344
aF2.904639262067767
aF2.5093034460390387
aF3.295093035420166
aF3.4387035356612268
aF2.9502546637831433
aF2.9106456151413935
aF3.1387340108947783
aF3.397461117203417
aF4.019021832972762
aF2.918103948989201
aF3.6301044938590104
aF2.495262883137835
aF3.359165074823416
aF2.5077146990263737
aF3.372329400668903
aF3.319069800944138
aF3.1993848624168595
aF3.1864598983218313
aF3.0687348937660426
aF2.5910163535392337
aF3.0235423408747124
aF3.016607582221172
aF3.5387839725004073
aF3.02511072375965
aF3.0154442756054975
aF2.609645109457289
aF2.831280513176916
aF2.7112413295068722
aF2.8776666070956565
aF3.01739766828818
aF2.7909930356796
aF3.5640998863699456
aF3.257650482480559
aF2.678331914267671
aF3.5045117399014543
aF3.157181328494525
aF4.57856518940093
aF3.815501124351643
aF2.697029856261465
aF1.9863769551444006
aF2.5559036439889065
aF2.7871894029687816
aF3.346474810139374
aF2.361206253196396
aF2.5990075878557755
aF2.604579245886585
aF1.5133149178115963
aF2.649079982585419
aF2.8122768698863916
aF2.1232790513265978
aF2.3815245049599083
aF1.9589994604151113
aF2.717616298397571
aF2.695907524775836
aF2.1533874704271563
aF2.1707983434074474
aF2.7920340993149964
aF2.1425747288812977
aF2.4362138244542764
aF2.790176189769641
aF3.036063297081921
aF2.792484407517149
aF3.0195805981457573
aF3.0725476965727037
aF2.958659922808509
aF2.9864800970738403
aF2.866094823470835
aF2.9118144898235845
aF3.2073534241488773
aF2.3269988338976746
aF2.623701045446363
aF3.1308286806245267
aF3.028635724680654
aF2.627156988150811
aF3.1443436989868974
aF2.6860065541898117
aF2.843355781336264
aF3.2684155580301733
aF3.0995565900020847
aF3.0493729356922636
aF2.5092821821648563
aF2.9528669661862557
aF3.2791138842547984
aF3.246974774573896
aF2.6516604765872342
aF2.432411914140501
aF2.546640093994108
aF2.6122420378510545
aF3.1142346520017647
aF3.282433773277209
aF3.015036684326088
aF2.9641500469890603
aF2.726291418538459
aF3.3522202311670863
aF3.274062741383742
aF2.9013554868755995
aF3.218717012973607
aF2.628552713281126
aF2.670557982220898
aF3.1630201811834096
aF2.856291106002422
aF2.7647946383723863
aF2.294421832715108
aF2.786093731747609
aF3.052810186605757
aF3.374508583649422
aF2.8092872206280686
aF3.021377613307554
aF2.6431078827111056
aF3.2724980660501735
aF2.651700148362128
aF2.660266121162684
aF2.767456914283016
aF2.894735242183529
aF2.587989542008511
aF3.677570818115744
aF2.723953491006531
aF2.593214704682814
aF3.0154596259158413
aF3.091069653514495
aF3.1441552233957895
aF2.942195229610103
aF3.082429118919231
aF2.8242514221129666
aF3.3309628047252655
aF3.1388985931276494
aF3.456609350146687
aF3.860727971065201
aF3.551163071458323
aF3.0044879722349003
aF2.657614297107716
aF3.3653295608235734
aF2.976084554866916
aF3.1266530217050783
aF2.8628090995570328
aF2.954181328277802
aF2.128850041202617
aF2.0824113913699778
aF2.3670307714683525
aF2.896522863296866
aF2.440501029483716
aF3.0338668415542456
aF2.9331775022217093
aF2.9443426255285714
aF2.4512245817926956
aF2.4347597626497812
aF2.7869835722521046
aF2.945204179488837
aF2.392736010617064
aF2.3191213732266283
aF2.4133213222639105
aF2.6894407485493765
aF1.7009347311074403
aF2.9357206118936863
aF1.7420769387574908
aF2.4987324260592576
aF2.8613815020094724
aF3.338311037231227
aF2.8618161192147977
aF3.064169842992293
aF2.835963894597986
aF2.1404850281656302
aF2.7163231118867532
aF2.692158891508124
aF2.272018362338502
aF2.3226900366944103
aF1.9943476315846134
aF2.21892799664855
aF2.9512271194368864
aF2.4333658188145058
aF2.7304956588705425
aF2.59702837981279
aF1.6813636720738059
aF1.9465182575687643
aF1.7749299326065238
aF2.0257762220165723
aF2.6576300563506243
aF2.35987852144041
aF2.598849075468706
aF2.63348921742329
aF1.8852242883708499
aF2.3166571601237718
aF2.506917753658204
aF2.0771577002743693
aF2.4441646410689213
aF1.860977610214221
aF1.8678152455251997
aF1.0300892521513942
aF2.0861319990919074
aF2.4030067663669943
aF2.189488942749496
aF2.5480141184510634
aF2.5775711916275617
as(I5
I7
tp753
(lp754
F0.7577491803406433
aF1.4741878770955963
aF5.1181705925173935
aF5.620127006639503
aF5.584531658026978
aF5.522606908199456
aF5.545702808492819
aF5.079094400031572
aF5.504750212763306
aF5.6158965072372045
aF5.546729688652522
aF5.59609242479236
aF5.623400339939458
aF5.616589654417768
aF5.546829383106619
aF5.57935022927622
aF5.59383624529671
aF5.613218038399944
aF5.611207875539388
aF5.59983607006398
aF5.596148400947592
aF5.623400339939459
aF5.623400339939461
aF5.623400339939457
aF5.623400339939461
aF5.621774925072502
aF5.621081777891942
aF5.6171620153144195
aF5.621752421506459
aF5.606412008591043
aF5.6217749250725015
aF5.62340033993946
aF5.6227071927589005
aF5.6152031908334035
aF5.620099426537081
aF5.609173894148546
aF5.596148400947594
aF5.623400339939457
aF5.62340033993946
aF5.620627751217219
aF5.591510930231983
aF5.604237082198695
aF5.61716201531442
aF5.618683597977815
aF5.568798993168782
aF5.570105556246409
aF5.5517557113759555
aF5.591510930231981
aF5.606412008591048
aF5.620099426537081
aF5.611207875539388
aF5.606412008591047
aF5.618378410638743
aF5.602044911008565
aF5.602044911008569
aF5.603543935018132
aF5.602935569523505
aF5.591510930231983
aF5.606412008591047
aF5.608788578712035
aF5.548115983013639
aF5.599836070063979
aF5.596148400947594
aF5.621774925072501
aF5.618378410638746
aF5.602044911008565
aF5.606412008591048
aF5.623400339939461
aF5.618025061531773
aF5.564972556221693
aF5.5984470414393
aF5.6227071927589
aF5.613861101912043
aF5.600126958960648
aF5.537011691649969
aF5.613218038399946
aF5.611207875539391
aF5.60856907404244
aF5.623400339939456
aF5.616615679713975
aF5.591510930231983
aF5.604237082198695
aF5.6152031908334
aF5.621774925072502
aF5.620099426537079
aF5.615203190833405
aF5.6217749250725015
aF5.618378410638743
aF5.60856907404244
aF5.623400339939459
aF5.6217749250725015
aF5.62009942653708
aF5.613218038399945
aF5.617162015314421
aF5.623400339939459
aF5.623400339939459
aF5.621774925072502
aF5.620099426537081
aF5.61716201531442
aF5.622707192758899
aF5.615203190833406
aF5.621774925072502
aF5.621774925072502
aF5.623400339939457
aF5.623400339939458
aF5.620099426537081
aF5.615203190833405
aF5.6217749250725015
aF5.623400339939458
aF5.623400339939459
aF5.622707192758898
aF5.615203190833407
aF5.621774925072502
aF5.62340033993946
aF5.622707192758898
aF5.6152031908334035
aF5.6217749250725015
aF5.623400339939459
aF5.6227071927589
aF5.615203190833404
aF5.62009942653708
aF5.6171620153144195
aF5.623400339939458
aF5.623400339939458
aF5.62340033993946
aF5.623400339939458
aF5.623400339939458
aF5.622707192758897
aF5.615203190833404
aF5.6217749250725015
aF5.620099426537081
aF5.613218038399947
aF5.6152031908334035
aF5.621774925072503
aF5.623400339939458
aF5.623400339939458
aF5.6227071927589005
aF5.6152031908334035
aF5.620099426537081
aF5.615203190833404
aF5.623400339939458
aF5.623400339939459
aF5.620099426537083
aF5.613218038399944
aF5.617162015314421
aF5.621752421506457
aF5.602044911008566
aF5.6042370821986935
aF5.615203190833405
aF5.62009942653708
aF5.6171620153144195
aF5.623400339939458
aF5.620627751217219
aF5.593836245296709
aF5.6132180383999435
aF5.61716201531442
aF5.6227071927589
aF5.6112078755393915
aF5.599836070063978
aF5.5915109302319825
aF5.604237082198696
aF5.6152031908334035
aF5.620099426537079
aF5.611207875539389
aF5.601351763828008
aF5.597998757573655
aF5.6152031908334035
aF5.616615679713973
aF5.593836245296709
aF5.6152031908334035
aF5.616615679713974
aF5.584459320347561
aF5.5725237409336446
aF5.623400339939456
aF5.623400339939461
aF5.623400339939459
aF5.623400339939459
aF5.620099426537082
aF5.609173894148542
aF5.593836245296712
aF5.6152031908334035
aF5.621774925072499
aF5.623400339939461
aF5.623400339939457
aF5.6227071927589005
aF5.613218038399945
aF5.613218038399945
aF5.611207875539389
aF5.604237082198694
aF5.617162015314419
aF5.623400339939459
aF5.6217749250725015
aF5.623400339939459
aF5.623400339939459
aF5.6227071927589005
aF5.613218038399945
aF5.615203190833403
aF5.618378410638742
aF5.602044911008568
aF5.59983607006398
aF5.5938362452967105
aF5.611207875539389
aF5.604237082198697
aF5.6152031908334035
aF5.620099426537081
aF5.6112078755393915
aF5.602611667331738
aF5.615536600447465
aF5.61850159177254
aF5.60316117885713
aF5.61675299577179
aF5.5898639130811105
aF5.562104170244216
aF5.623400339939462
aF5.621774925072501
aF5.623400339939462
aF5.623400339939456
aF5.623400339939461
aF5.62340033993946
aF5.619002336350262
aF5.577907577211269
aF5.561075762093675
aF5.61689868047163
aF5.598354115864136
aF5.510154706853237
aF5.621774925072501
aF5.620099426537082
aF5.588264797111873
aF5.448872703599
aF5.592129820308135
aF5.501652710159507
as(I3
I8
tp755
(lp756
F0.44290010280279063
aF0.8830823721868823
aF2.716794635792517
aF2.4645923050763194
aF1.525531440902577
aF2.226392452828205
aF2.6005225257265305
aF2.249287172407448
aF0.8144299176913243
aF0.1650557064143972
aF1.4461117936682797
aF1.8591244260852746
aF0.39666508557002855
aF0.7064845844219924
aF2.9136313247081227
aF3.0993083177501837
aF2.8666008648368027
aF2.930341158495354
aF3.129061081535034
aF3.24033527143274
aF3.4791627545879367
aF2.5549193197870084
aF2.720903297135417
aF2.3195719944992796
aF2.6758282646934552
aF2.5864796767840605
aF2.6326772029709784
aF2.1302061795062586
aF2.435555896396439
aF2.9310223345879227
aF2.9935453215439427
aF2.8501870073382416
aF2.9911854119325825
aF2.9054952960072677
aF2.7446035495952836
aF2.7765617971403587
aF2.9719393661723665
aF2.6914262323940266
aF2.7915859376116248
aF2.4171317944059627
aF3.1073135884415746
aF3.1902924778749155
aF2.8217041854650633
aF2.7005424601655528
aF2.900457542213901
aF3.0222115999139216
aF3.4805661776557564
aF2.4653794329499523
aF3.146212151908106
aF2.4415362439124917
aF3.099773366622462
aF2.3067447772410365
aF3.069029963957476
aF3.0493651284498524
aF2.978912933494393
aF2.9715804615032715
aF2.8888491760586024
aF2.4979161030890618
aF2.827428047355809
aF2.846866845797118
aF3.1529183831141308
aF2.7521677751023566
aF2.7192974894621313
aF2.4895846951326552
aF2.736001091683241
aF2.6318357124049
aF2.7364649026845806
aF2.843106535423309
aF2.41466497955037
aF3.1295314554836087
aF3.0255864433515507
aF2.6237729313680362
aF3.1617351729855434
aF2.8251477335588797
aF3.446338388012104
aF3.1877218492271657
aF2.535175197180904
aF1.735043462301063
aF2.044174896411371
aF2.3862690246797142
aF2.888975663360957
aF2.291763299309405
aF2.441762736093652
aF2.428153456298502
aF1.4978730476119302
aF2.5364417914926944
aF2.7318880675420636
aF2.0289336816306327
aF2.2669081910045272
aF1.6172713042982314
aF2.290640034405583
aF2.5142537650251278
aF1.8558485614084177
aF2.1191813936427497
aF2.6631418014439543
aF2.082414019824349
aF2.2559059575305995
aF2.6995106778874765
aF2.9976989720266314
aF2.7225444673065815
aF2.8547117008751806
aF2.964712593144138
aF2.85114175648474
aF2.884311990572305
aF2.562130355802832
aF2.7260385236491858
aF3.055957402003117
aF2.309501454743025
aF2.6170992186416075
aF3.098382250311519
aF3.0100227171441225
aF2.571174404552051
aF3.0973179556708352
aF2.6094879872595094
aF2.7893771624172894
aF3.144443627188993
aF2.886737698712508
aF2.9363723834796347
aF2.1681915519682518
aF2.9206866308246835
aF3.2037150342574527
aF3.0491519225976567
aF2.6028848852050133
aF2.4238189728685215
aF2.5417137657247726
aF2.5847229519123562
aF3.063821495259384
aF3.2235771490585425
aF2.945965001489458
aF2.8831352976066844
aF2.6025600997510887
aF3.2204200122851954
aF3.1679310264889105
aF2.809169961160909
aF3.0236523148915935
aF2.571712489934584
aF2.631529475598225
aF2.9749831374376723
aF2.6609972586797936
aF2.6098184324954423
aF2.2326741989724543
aF2.737951713912818
aF2.9731582314592253
aF3.1782506066996214
aF2.423188834254893
aF2.9447304279426896
aF2.569860201326559
aF3.088742006727956
aF2.62060384503391
aF2.5894803981053514
aF2.71632905387833
aF2.808609148978434
aF2.4833285173969233
aF3.284911247138189
aF2.6449579991158925
aF2.493411514904041
aF2.8379105993973806
aF2.866894166170588
aF2.949692840764274
aF2.772148362343469
aF2.7142277050822443
aF2.650828714795161
aF3.05967399199765
aF2.9725208485197974
aF3.1307570208298725
aF3.4702045332174443
aF3.2437043759270363
aF2.85932287777655
aF2.5546888546628366
aF3.247954954118702
aF2.947107962122578
aF3.0752481666022455
aF2.759538645342637
aF2.877790241468431
aF2.106883838745836
aF2.0363163179578367
aF2.290592497862232
aF2.780547247786052
aF2.3867129219258505
aF2.923117898361752
aF2.826765553094322
aF2.7356848809081233
aF2.417945601438093
aF2.3889591535987966
aF2.7547251144987186
aF2.8537936164704796
aF2.310042349897057
aF2.2748009123941633
aF2.3726295905776813
aF2.513470834074502
aF1.5429945165460104
aF2.8900094903849993
aF1.7342131992654946
aF2.493163034277827
aF2.8331678904532405
aF3.1870801590860474
aF2.739296601501047
aF2.9129857794949694
aF2.7856500342152137
aF2.0752528284526086
aF2.489174501212844
aF2.560376679014695
aF2.225924510088687
aF2.2992063184114815
aF1.8516883809245415
aF2.182960222599596
aF2.8958618876358297
aF2.4106387734361396
aF2.724180454229851
aF2.5390448530152603
aF1.3940936043856416
aF1.938991752077224
aF1.765948976405273
aF2.023817397535556
aF2.6576300563506248
aF2.359878521440409
aF2.5988490754687055
aF2.6334892174232905
aF1.88522428837085
aF2.3147130068843653
aF2.488303533657036
aF2.0754822017389483
aF2.433405019709726
aF1.8464698905682995
aF1.8557218951693861
aF1.0211082959501432
aF2.084173174610892
aF2.3949441238014635
aF2.145465128295958
aF2.5356290822249106
aF2.5585039546247366
as(I4
I3
tp757
(lp758
F0.24894480585888243
aF0.458186678502116
aF0.9440606723695639
aF0.07734010012178276
aF0.18876812404082294
aF0.3778590164676292
aF0.24954544505646997
aF0.9959934789560861
aF0.5315978236623666
aF0.09197624496927267
aF0.9278294280243873
aF2.582674162772649
aF2.6190094127944827
aF2.5346789728705157
aF1.216496720581062
aF0.9559425910357604
aF0.8488414215027977
aF0.8656694063123535
aF0.8182562658249869
aF0.8381316875958308
aF0.6595810895412946
aF0.7193970121019793
aF0.46559623246964577
aF0.31202441870419534
aF0.20038977389352614
aF0.24943311904696025
aF0.26048702363286425
aF0.2697968547863709
aF0.43073244871313954
aF0.5276663856646098
aF0.5127351474839514
aF0.21799351291314958
aF0.29286196299512696
aF0.46587785067309956
aF0.5371717179782937
aF0.3684866797249521
aF0.5394698259311894
aF0.34232165481962906
aF0.5615494048902371
aF0.42707475406165646
aF0.7042225547134698
aF0.6854933754410318
aF0.5075687074877862
aF0.649337976845885
aF0.7221307849680889
aF0.8330819114172029
aF1.1218987034590033
aF0.7148535474626091
aF0.9152566827651919
aF0.36226859912853737
aF0.7744171964360905
aF0.6149746982262856
aF0.7682977884302132
aF0.9019991438062176
aF0.668077094752218
aF0.6829343751003278
aF0.753929061721086
aF0.517408801672884
aF0.6370231386211589
aF0.6521416626996898
aF0.8925672691682274
aF0.7389227569006502
aF0.8946230708947192
aF0.5171220113218733
aF0.5095983291837982
aF0.4484777591301396
aF0.5800913300185813
aF0.5128640164725811
aF0.6234050211231796
aF0.964239609267957
aF0.8917321003608462
aF0.25023095165689074
aF0.8475799371937045
aF0.6845015053747044
aF1.0658285182487532
aF1.0195272354007352
aF0.6455348284604776
aF0.35443499740106166
aF0.30964804706966204
aF0.6008317456642702
aF0.7168778234637279
aF0.46482897308227894
aF0.6475834829616434
aF0.5780570476179357
aF0.1482750850253065
aF0.41700694139035166
aF0.44334851214464427
aF0.24050135095454933
aF0.3190924038079256
aF0.13800110697632179
aF0.28577007782221325
aF0.4594580023218301
aF0.24126410962087874
aF0.357089305257061
aF0.2129674137655853
aF0.21343390013828734
aF0.3042351115051645
aF0.30623840762523324
aF0.3053598013488736
aF0.14944650775662816
aF0.39083290974338875
aF0.49437218718232817
aF0.28931536533634544
aF0.4172415865979323
aF0.2673075103139932
aF0.2861165949920776
aF0.5181482503300947
aF0.09203264331939101
aF0.1409195176527269
aF0.2653999440883663
aF0.14779349769388309
aF0.2470881386819322
aF0.2990478716825389
aF0.23455890929856676
aF0.15636042185842766
aF0.4138114076277618
aF0.37987399137696204
aF0.34042000648698617
aF0.0923545587917501
aF0.3180454535175137
aF0.23675993338414078
aF0.38988227518899893
aF0.17741039902443817
aF0.12173266693901937
aF0.14165239673258517
aF0.30205573987643913
aF0.19593758947199058
aF0.4239272576315402
aF0.3587298608396263
aF0.47798525902545025
aF0.40968880928065954
aF0.5120992089699332
aF0.5070641955797155
aF0.46365125069369073
aF0.5748278429489291
aF0.337574266101999
aF0.2732287466791147
aF0.5249140668752309
aF0.31318990815193404
aF0.4921361927698349
aF0.3056672439468995
aF0.3476651719630759
aF0.41388430403151116
aF0.6324305306817938
aF0.2990923202473244
aF0.397666075406011
aF0.4533224585846304
aF0.5274252835131368
aF0.35081691070612175
aF0.4639735933743137
aF0.3790263169520037
aF0.5547404697970727
aF0.4217868795987975
aF0.8669397487487749
aF0.48961561348154464
aF0.48092686919541733
aF0.6132525676703235
aF0.71196391794855
aF0.6519156803041282
aF0.7102760355510622
aF0.7546626596865661
aF0.6477993406973992
aF0.6834024486753516
aF0.5242576288846479
aF0.8410754373212976
aF0.886840860666614
aF0.7623759230475564
aF0.4825145111847333
aF0.49597820493312805
aF0.5472405014152204
aF0.307161603699872
aF0.5820622807290972
aF0.44594805043712715
aF0.5351642451849328
aF0.2784808354088864
aF0.30618843912537164
aF0.41303975252202235
aF0.4552856839392836
aF0.35713731901637646
aF0.6349705450918932
aF0.3446644597567482
aF0.3157606078782916
aF0.2521576119922456
aF0.29526140551908253
aF0.32136917025812456
aF0.3474562443720243
aF0.47976954733128413
aF0.34597087855103414
aF0.3566916205937891
aF0.4339368865657039
aF0.12476959774440514
aF0.40879446402750913
aF0.16427490055361668
aF0.1433079036055323
aF0.3145910226073753
aF0.4773116712163935
aF0.35795828595136375
aF0.28055053391048873
aF0.5062935270025491
aF0.42251747808582846
aF0.6878597708622575
aF0.656654276743971
aF0.25322788231976995
aF0.27909287314805736
aF0.06853403144792194
aF0.3087097070256649
aF0.40872445153574744
aF0.2232559857975705
aF0.18202766356739988
aF0.29510272254571407
aF0.10207998890300228
aF0.1729279353520862
aF0.2522258757887099
aF0.06228198656626234
aF0.0916940873151231
aF0.05759247889013249
aF0.012900228126390812
aF0.08902622721078157
aF0.03310448081412399
aF0.06816057362480035
aF0.27253463068705797
aF0.27287801261040323
aF0.22322419077925645
aF0.222622442340939
aF0.35249793813372504
aF0.13864773295482186
aF0.09329832061984675
aF0.18192670234993755
aF0.5453052695943736
aF0.19205323365951948
aF0.3892315258805463
as(I3
I4
tp759
(lp760
F0.24894480585888243
aF0.458186678502116
aF0.9440606723695639
aF0.07734010012178276
aF0.18876812404082294
aF0.3778590164676292
aF0.24954544505646997
aF0.9959934789560861
aF0.5315978236623666
aF0.09197624496927267
aF0.9278294280243872
aF2.582674162772648
aF2.6190094127944827
aF2.5346789728705166
aF1.216496720581062
aF0.9559425910357603
aF0.8488414215027976
aF0.8656694063123535
aF0.8182562658249869
aF0.8381316875958308
aF0.6595810895412946
aF0.7193970121019791
aF0.46559623246964577
aF0.3120244187041954
aF0.20038977389352614
aF0.24943311904696028
aF0.26048702363286425
aF0.2697968547863709
aF0.4307324487131396
aF0.5276663856646098
aF0.5127351474839514
aF0.21799351291314958
aF0.29286196299512696
aF0.4658778506730996
aF0.5371717179782936
aF0.368486679724952
aF0.5394698259311894
aF0.34232165481962906
aF0.5615494048902372
aF0.4270747540616565
aF0.7042225547134698
aF0.6854933754410318
aF0.5075687074877862
aF0.649337976845885
aF0.722130784968089
aF0.8330819114172029
aF1.1218987034590033
aF0.7148535474626092
aF0.9152566827651917
aF0.36226859912853737
aF0.7744171964360905
aF0.6149746982262856
aF0.7682977884302133
aF0.9019991438062175
aF0.668077094752218
aF0.6829343751003278
aF0.753929061721086
aF0.517408801672884
aF0.6370231386211589
aF0.6521416626996898
aF0.8925672691682273
aF0.7389227569006503
aF0.894623070894719
aF0.5171220113218732
aF0.5095983291837981
aF0.4484777591301396
aF0.5800913300185814
aF0.5128640164725811
aF0.6234050211231795
aF0.964239609267957
aF0.8917321003608462
aF0.25023095165689074
aF0.8475799371937045
aF0.6845015053747044
aF1.0658285182487532
aF1.0195272354007352
aF0.6455348284604775
aF0.35443499740106166
aF0.30964804706966204
aF0.6008317456642701
aF0.7168778234637277
aF0.464828973082279
aF0.6475834829616434
aF0.5780570476179356
aF0.1482750850253065
aF0.41700694139035166
aF0.44334851214464427
aF0.24050135095454933
aF0.3190924038079256
aF0.1380011069763218
aF0.2857700778222132
aF0.4594580023218302
aF0.24126410962087874
aF0.357089305257061
aF0.2129674137655853
aF0.21343390013828734
aF0.30423511150516447
aF0.30623840762523324
aF0.3053598013488736
aF0.14944650775662816
aF0.39083290974338875
aF0.4943721871823283
aF0.28931536533634544
aF0.4172415865979323
aF0.2673075103139932
aF0.28611659499207764
aF0.5181482503300947
aF0.09203264331939101
aF0.14091951765272687
aF0.2653999440883663
aF0.14779349769388309
aF0.2470881386819322
aF0.29904787168253893
aF0.23455890929856676
aF0.15636042185842766
aF0.4138114076277618
aF0.37987399137696204
aF0.34042000648698617
aF0.0923545587917501
aF0.3180454535175137
aF0.23675993338414075
aF0.38988227518899893
aF0.1774103990244382
aF0.12173266693901937
aF0.14165239673258517
aF0.3020557398764391
aF0.19593758947199058
aF0.42392725763154027
aF0.35872986083962627
aF0.47798525902545025
aF0.4096888092806596
aF0.5120992089699332
aF0.5070641955797156
aF0.4636512506936908
aF0.5748278429489291
aF0.33757426610199903
aF0.2732287466791147
aF0.5249140668752309
aF0.31318990815193404
aF0.4921361927698349
aF0.3056672439468995
aF0.34766517196307584
aF0.4138843040315111
aF0.6324305306817938
aF0.29909232024732435
aF0.397666075406011
aF0.4533224585846304
aF0.5274252835131368
aF0.35081691070612175
aF0.4639735933743137
aF0.37902631695200373
aF0.5547404697970726
aF0.4217868795987975
aF0.866939748748775
aF0.4896156134815447
aF0.48092686919541733
aF0.6132525676703235
aF0.71196391794855
aF0.6519156803041283
aF0.7102760355510622
aF0.7546626596865661
aF0.6477993406973992
aF0.6834024486753516
aF0.5242576288846479
aF0.8410754373212976
aF0.8868408606666139
aF0.7623759230475564
aF0.4825145111847333
aF0.49597820493312805
aF0.5472405014152204
aF0.30716160369987205
aF0.5820622807290972
aF0.44594805043712726
aF0.5351642451849329
aF0.27848083540888646
aF0.30618843912537164
aF0.41303975252202235
aF0.4552856839392836
aF0.3571373190163765
aF0.6349705450918932
aF0.34466445975674825
aF0.3157606078782916
aF0.25215761199224557
aF0.29526140551908253
aF0.3213691702581245
aF0.3474562443720243
aF0.47976954733128413
aF0.3459708785510342
aF0.3566916205937891
aF0.4339368865657039
aF0.12476959774440516
aF0.40879446402750913
aF0.16427490055361665
aF0.1433079036055323
aF0.3145910226073753
aF0.4773116712163935
aF0.35795828595136375
aF0.2805505339104888
aF0.5062935270025491
aF0.4225174780858284
aF0.6878597708622575
aF0.6566542767439709
aF0.25322788231976995
aF0.2790928731480573
aF0.06853403144792194
aF0.30870970702566497
aF0.40872445153574744
aF0.2232559857975705
aF0.18202766356739988
aF0.29510272254571407
aF0.10207998890300228
aF0.1729279353520862
aF0.2522258757887099
aF0.06228198656626234
aF0.09169408731512312
aF0.05759247889013249
aF0.012900228126390812
aF0.08902622721078157
aF0.03310448081412399
aF0.06816057362480037
aF0.2725346306870579
aF0.27287801261040323
aF0.22322419077925645
aF0.222622442340939
aF0.35249793813372504
aF0.13864773295482186
aF0.09329832061984675
aF0.18192670234993755
aF0.5453052695943736
aF0.19205323365951946
aF0.3892315258805463
as(I8
I4
tp761
(lp762
F0.44290010280279074
aF0.9137114942854276
aF2.8189248277004606
aF2.4652854522568792
aF1.5343223715445977
aF2.244118604227807
aF2.6144508220531586
aF2.3702361885897525
aF0.8933045957228208
aF0.1719525674854757
aF1.6657847784120798
aF3.302498290637505
aF2.2334550499912975
aF2.6078077727267255
aF3.1159032112796954
aF3.212444813528464
aF2.9774881673233353
aF3.0173225402061417
aF3.1944725046609657
aF3.3347016135747145
aF3.5383920592771707
aF2.587937462809539
aF2.7311356823433934
aF2.334916717322269
aF2.690286241990595
aF2.60367958839706
aF2.647112676702074
aF2.1347727702090915
aF2.443539451256767
aF2.95943441308844
aF3.03319832030375
aF2.857811626324402
aF3.008814145037195
aF2.9550514958105616
aF2.7757429754365255
aF2.7845499183062348
aF3.006291161103477
aF2.7076204159236434
aF2.8100835665144306
aF2.4337094227879614
aF3.177415518583281
aF3.241272908846
aF2.8684748349514404
aF2.75739820133974
aF2.974282393164207
aF3.1207392622318473
aF3.712562176490219
aF2.5426564319586045
aF3.2245076270639887
aF2.4563660659446094
aF3.1702947717329315
aF2.348041273721039
aF3.1684498316079437
aF3.1479840440735614
aF3.0304709952712443
aF3.0522603528156806
aF2.954076470508415
aF2.5342539114032934
aF2.8762835098733803
aF2.875564241066707
aF3.250505448403493
aF2.847889601611608
aF2.830872608854424
aF2.535779428530346
aF2.75873644179242
aF2.6705167612553278
aF2.759954711882599
aF2.87530769707621
aF2.4589148561026803
aF3.2839257399389337
aF3.0782488494725717
aF2.631456145801161
aF3.2335811631754394
aF2.8757245357152907
aF3.678354648364386
aF3.3231817985052965
aF2.564662209860728
aF1.76385007780106
aF2.0647049471011796
aF2.4365751860816087
aF2.942694952127221
aF2.309045735989068
aF2.493272413618122
aF2.479841378505368
aF1.5022855532194963
aF2.5644360740474905
aF2.7463838102095335
aF2.040454247705111
aF2.289603196393543
aF1.6179644514787925
aF2.3029472948496927
aF2.543526911049875
aF1.8605812865348328
aF2.1405843937788673
aF2.663141801443954
aF2.083107167004908
aF2.263865298053976
aF2.7146995677355066
aF3.010818684788807
aF2.7269437828189376
aF2.878964913643251
aF2.9732418997142758
aF2.8681242494656143
aF2.9026311722814984
aF2.564499001518814
aF2.7421719994817484
aF3.0786524073921324
aF2.3095014547430255
aF2.622768777759966
aF3.1197228678957702
aF3.0123913628601033
aF2.5869698446918235
aF3.1041993438079722
aF2.609487987259509
aF2.7900703095978496
aF3.1562513435954647
aF2.895852387051269
aF2.954203172248342
aF2.1681915519682513
aF2.923266816944084
aF3.2165399560781274
aF3.0846755375665995
aF2.610771128263054
aF2.4386502387655407
aF2.541713765724773
aF2.5879737816462716
aF3.0688434245600997
aF3.2400563333885644
aF2.9656541360179345
aF2.9212280797667693
aF2.626658006503243
aF3.2654054434525146
aF3.1830190711543924
aF2.8361983563765913
aF3.0616964912144375
aF2.5861479636656783
aF2.637199034716583
aF2.9959665896918435
aF2.6687401596317346
aF2.6642436985465245
aF2.243439926589599
aF2.7593596586435645
aF2.9842323185523707
aF3.243519025052641
aF2.4356031914464804
aF2.9534253763685916
aF2.6057714043977622
aF3.1232254745421555
aF2.655496500181346
aF2.622795803631615
aF2.7374618982334797
aF2.8379714896379284
aF2.5040651016109217
aF3.357595704040956
aF2.68225706534964
aF2.5317941202912295
aF2.8620769697943365
aF2.924117024703264
aF3.0249872067087367
aF2.8368454085670662
aF2.7985421395065657
aF2.690981784179568
aF3.098132163109983
aF3.002394100229768
aF3.228976765590355
aF3.5598534971483597
aF3.301391087115269
aF2.883333380250998
aF2.587930880745293
aF3.2864756047401604
aF2.957733383708418
aF3.1313981776566377
aF2.7858490767667474
aF2.896894061730035
aF2.1094916049676535
aF2.041621573204146
aF2.3146138356729193
aF2.830033059163161
aF2.4134794393950947
aF2.99020174311728
aF2.8391409746846525
aF2.739031311673418
aF2.429926688501801
aF2.399774333382495
aF2.7642643525261366
aF2.867748869007404
aF2.334096565517538
aF2.2781723591887424
aF2.398419607342752
aF2.541445568449717
aF1.546056309442552
aF2.9146510213716272
aF1.7420769387574906
aF2.496174743505904
aF2.848854370243183
aF3.2072117412369336
aF2.786227109976897
aF2.927555349263775
aF2.8368719479474307
aF2.1076205048282013
aF2.5829557941587677
aF2.6191416856362006
aF2.2417823327803252
aF2.307070057903479
aF1.8530746752856608
aF2.2061655089896366
aF2.9320670714197123
aF2.4247728775425244
aF2.7304956588705416
aF2.566352768162359
aF1.3947867515662014
aF1.946518257568764
aF1.7749299326065242
aF2.0257762220165714
aF2.6576300563506243
aF2.3598785214404105
aF2.5988490754687055
aF2.63348921742329
aF1.8852242883708499
aF2.316657160123771
aF2.5069177536582035
aF2.077157700274369
aF2.4441646410689213
aF1.8609776102142215
aF1.8678152455252
aF1.0300892521513945
aF2.086131999091908
aF2.403006766366992
aF2.189488942749496
aF2.548014118451062
aF2.577571191627562
astp763
.