((lp0
cdatetime
datetime
p1
(S'\x07l\x01\x01\x01\x15\x13\x00\x00\x00'
p2
tp3
Rp4
ag1
(S'\x07l\x01\x01\x02 \x08\x00\x00\x00'
p5
tp6
Rp7
ag1
(S'\x07l\x01\x01\x02,\x00\x00\x00\x00'
p8
tp9
Rp10
ag1
(S'\x07l\x01\x01\x03\x16\x1a\x00\x00\x00'
p11
tp12
Rp13
ag1
(S'\x07l\x01\x01\x04\x1d0\x00\x00\x00'
p14
tp15
Rp16
ag1
(S'\x07l\x01\x01\x077\x1b\x00\x00\x00'
p17
tp18
Rp19
ag1
(S'\x07l\x01\x01\x077;\x00\x00\x00'
p20
tp21
Rp22
ag1
(S'\x07l\x01\x01\x08\x02 \x00\x00\x00'
p23
tp24
Rp25
ag1
(S'\x07l\x01\x01\x08\x0c\x10\x00\x00\x00'
p26
tp27
Rp28
ag1
(S'\x07l\x01\x01\x08\x0c\x11\x00\x00\x00'
p29
tp30
Rp31
ag1
(S'\x07l\x01\x01\x08\x15\x0c\x00\x00\x00'
p32
tp33
Rp34
ag1
(S'\x07l\x01\x01\x08\x1e\x07\x00\x00\x00'
p35
tp36
Rp37
ag1
(S'\x07l\x01\x01\x08%8\x00\x00\x00'
p38
tp39
Rp40
ag1
(S'\x07l\x01\x01\x08)1\x00\x00\x00'
p41
tp42
Rp43
ag1
(S'\x07l\x01\x01\x08/\x04\x00\x00\x00'
p44
tp45
Rp46
ag1
(S'\x07l\x01\x01\x082\x08\x00\x00\x00'
p47
tp48
Rp49
ag1
(S'\x07l\x01\x01\x0830\x00\x00\x00'
p50
tp51
Rp52
ag1
(S'\x07l\x01\x01\x085\x15\x00\x00\x00'
p53
tp54
Rp55
ag1
(S'\x07l\x01\x01\x087\x03\x00\x00\x00'
p56
tp57
Rp58
ag1
(S'\x07l\x01\x01\x089\x06\x00\x00\x00'
p59
tp60
Rp61
ag1
(S'\x07l\x01\x01\x08:0\x00\x00\x00'
p62
tp63
Rp64
ag1
(S'\x07l\x01\x01\x08;*\x00\x00\x00'
p65
tp66
Rp67
ag1
(S'\x07l\x01\x01\t\x014\x00\x00\x00'
p68
tp69
Rp70
ag1
(S'\x07l\x01\x01\t\x04 \x00\x00\x00'
p71
tp72
Rp73
ag1
(S'\x07l\x01\x01\t\x07\x1c\x00\x00\x00'
p74
tp75
Rp76
ag1
(S'\x07l\x01\x01\t\n\t\x00\x00\x00'
p77
tp78
Rp79
ag1
(S'\x07l\x01\x01\t\x0e\x13\x00\x00\x00'
p80
tp81
Rp82
ag1
(S'\x07l\x01\x01\t\x13\t\x00\x00\x00'
p83
tp84
Rp85
ag1
(S'\x07l\x01\x01\t\x17\x01\x00\x00\x00'
p86
tp87
Rp88
ag1
(S'\x07l\x01\x01\t\x1a\x08\x00\x00\x00'
p89
tp90
Rp91
ag1
(S'\x07l\x01\x01\t\x1e\x0e\x00\x00\x00'
p92
tp93
Rp94
ag1
(S'\x07l\x01\x01\t!5\x00\x00\x00'
p95
tp96
Rp97
ag1
(S'\x07l\x01\x01\t%!\x00\x00\x00'
p98
tp99
Rp100
ag1
(S'\x07l\x01\x01\t*\r\x00\x00\x00'
p101
tp102
Rp103
ag1
(S'\x07l\x01\x01\t1\x06\x00\x00\x00'
p104
tp105
Rp106
ag1
(S'\x07l\x01\x01\t83\x00\x00\x00'
p107
tp108
Rp109
ag1
(S'\x07l\x01\x01\n\r\x0c\x00\x00\x00'
p110
tp111
Rp112
ag1
(S'\x07l\x01\x01\n\x13\x16\x00\x00\x00'
p113
tp114
Rp115
ag1
(S"\x07l\x01\x01\n\x17'\x00\x00\x00"
p116
tp117
Rp118
ag1
(S'\x07l\x01\x01\n\x1a;\x00\x00\x00'
p119
tp120
Rp121
ag1
(S'\x07l\x01\x01\n\x1d0\x00\x00\x00'
p122
tp123
Rp124
ag1
(S'\x07l\x01\x01\n"\x05\x00\x00\x00'
p125
tp126
Rp127
ag1
(S'\x07l\x01\x01\n(+\x00\x00\x00'
p128
tp129
Rp130
ag1
(S'\x07l\x01\x01\n.\x19\x00\x00\x00'
p131
tp132
Rp133
ag1
(S'\x07l\x01\x01\n4\x03\x00\x00\x00'
p134
tp135
Rp136
ag1
(S'\x07l\x01\x01\n9-\x00\x00\x00'
p137
tp138
Rp139
ag1
(S'\x07l\x01\x01\x0b\x05\x04\x00\x00\x00'
p140
tp141
Rp142
ag1
(S'\x07l\x01\x01\x0b\r\x1e\x00\x00\x00'
p143
tp144
Rp145
ag1
(S'\x07l\x01\x01\x0b\x16!\x00\x00\x00'
p146
tp147
Rp148
ag1
(S'\x07l\x01\x01\x0b\x1c\x04\x00\x00\x00'
p149
tp150
Rp151
ag1
(S'\x07l\x01\x01\x0b \x05\x00\x00\x00'
p152
tp153
Rp154
ag1
(S'\x07l\x01\x01\x0b%\x1a\x00\x00\x00'
p155
tp156
Rp157
ag1
(S'\x07l\x01\x01\x0b)9\x00\x00\x00'
p158
tp159
Rp160
ag1
(S'\x07l\x01\x01\x0b.,\x00\x00\x00'
p161
tp162
Rp163
ag1
(S'\x07l\x01\x01\x0b38\x00\x00\x00'
p164
tp165
Rp166
ag1
(S'\x07l\x01\x01\x0b8\x14\x00\x00\x00'
p167
tp168
Rp169
ag1
(S'\x07l\x01\x01\x0b;&\x00\x00\x00'
p170
tp171
Rp172
ag1
(S'\x07l\x01\x01\x0c\x05\r\x00\x00\x00'
p173
tp174
Rp175
ag1
(S'\x07l\x01\x01\x0c\x0f\r\x00\x00\x00'
p176
tp177
Rp178
ag1
(S'\x07l\x01\x01\x0c\x163\x00\x00\x00'
p179
tp180
Rp181
ag1
(S'\x07l\x01\x01\x0c\x1b\x01\x00\x00\x00'
p182
tp183
Rp184
ag1
(S'\x07l\x01\x01\x0c\x1c\x15\x00\x00\x00'
p185
tp186
Rp187
ag1
(S'\x07l\x01\x01\x0c\x1f.\x00\x00\x00'
p188
tp189
Rp190
ag1
(S"\x07l\x01\x01\x0c'\n\x00\x00\x00"
p191
tp192
Rp193
ag1
(S'\x07l\x01\x01\x0c,;\x00\x00\x00'
p194
tp195
Rp196
ag1
(S'\x07l\x01\x01\x0c/3\x00\x00\x00'
p197
tp198
Rp199
ag1
(S'\x07l\x01\x01\x0c24\x00\x00\x00'
p200
tp201
Rp202
ag1
(S'\x07l\x01\x01\x0c6\x04\x00\x00\x00'
p203
tp204
Rp205
ag1
(S'\x07l\x01\x01\x0c:\x0e\x00\x00\x00'
p206
tp207
Rp208
ag1
(S'\x07l\x01\x01\r\x00/\x00\x00\x00'
p209
tp210
Rp211
ag1
(S'\x07l\x01\x01\r\x03\x03\x00\x00\x00'
p212
tp213
Rp214
ag1
(S'\x07l\x01\x01\r\x054\x00\x00\x00'
p215
tp216
Rp217
ag1
(S'\x07l\x01\x01\r\x07%\x00\x00\x00'
p218
tp219
Rp220
ag1
(S'\x07l\x01\x01\r\t#\x00\x00\x00'
p221
tp222
Rp223
ag1
(S'\x07l\x01\x01\r\x0b9\x00\x00\x00'
p224
tp225
Rp226
ag1
(S'\x07l\x01\x01\r\r\x19\x00\x00\x00'
p227
tp228
Rp229
ag1
(S'\x07l\x01\x01\r\x0f\x15\x00\x00\x00'
p230
tp231
Rp232
ag1
(S'\x07l\x01\x01\r\x11\x1f\x00\x00\x00'
p233
tp234
Rp235
ag1
(S'\x07l\x01\x01\r\x14\x11\x00\x00\x00'
p236
tp237
Rp238
ag1
(S'\x07l\x01\x01\r\x16\x0b\x00\x00\x00'
p239
tp240
Rp241
ag1
(S'\x07l\x01\x01\r\x18\x1b\x00\x00\x00'
p242
tp243
Rp244
ag1
(S'\x07l\x01\x01\r\x1a\x16\x00\x00\x00'
p245
tp246
Rp247
ag1
(S'\x07l\x01\x01\r\x1c"\x00\x00\x00'
p248
tp249
Rp250
ag1
(S'\x07l\x01\x01\r\x1e6\x00\x00\x00'
p251
tp252
Rp253
ag1
(S'\x07l\x01\x01\r!#\x00\x00\x00'
p254
tp255
Rp256
ag1
(S'\x07l\x01\x01\r"\x0f\x00\x00\x00'
p257
tp258
Rp259
ag1
(S'\x07l\x01\x01\r$\n\x00\x00\x00'
p260
tp261
Rp262
ag1
(S"\x07l\x01\x01\r&'\x00\x00\x00"
p263
tp264
Rp265
ag1
(S'\x07l\x01\x01\r(\x1a\x00\x00\x00'
p266
tp267
Rp268
ag1
(S'\x07l\x01\x01\r*9\x00\x00\x00'
p269
tp270
Rp271
ag1
(S'\x07l\x01\x01\r,\x13\x00\x00\x00'
p272
tp273
Rp274
ag1
(S'\x07l\x01\x01\r/*\x00\x00\x00'
p275
tp276
Rp277
ag1
(S'\x07l\x01\x01\r17\x00\x00\x00'
p278
tp279
Rp280
ag1
(S'\x07l\x01\x01\r3\x1c\x00\x00\x00'
p281
tp282
Rp283
ag1
(S'\x07l\x01\x01\r5\x1e\x00\x00\x00'
p284
tp285
Rp286
ag1
(S'\x07l\x01\x01\r6;\x00\x00\x00'
p287
tp288
Rp289
ag1
(S'\x07l\x01\x01\r8\x17\x00\x00\x00'
p290
tp291
Rp292
ag1
(S'\x07l\x01\x01\r91\x00\x00\x00'
p293
tp294
Rp295
ag1
(S'\x07l\x01\x01\r;\x00\x00\x00\x00'
p296
tp297
Rp298
ag1
(S'\x07l\x01\x01\x0e\x009\x00\x00\x00'
p299
tp300
Rp301
ag1
(S'\x07l\x01\x01\x0e\x02:\x00\x00\x00'
p302
tp303
Rp304
ag1
(S'\x07l\x01\x01\x0e\x07\x0e\x00\x00\x00'
p305
tp306
Rp307
ag1
(S'\x07l\x01\x01\x0e\t\x15\x00\x00\x00'
p308
tp309
Rp310
ag1
(S'\x07l\x01\x01\x0e\n4\x00\x00\x00'
p311
tp312
Rp313
ag1
(S'\x07l\x01\x01\x0e\r\x10\x00\x00\x00'
p314
tp315
Rp316
ag1
(S'\x07l\x01\x01\x0e\x10\x11\x00\x00\x00'
p317
tp318
Rp319
ag1
(S'\x07l\x01\x01\x0e\x12\x16\x00\x00\x00'
p320
tp321
Rp322
ag1
(S'\x07l\x01\x01\x0e\x133\x00\x00\x00'
p323
tp324
Rp325
ag1
(S'\x07l\x01\x01\x0e\x15\x1f\x00\x00\x00'
p326
tp327
Rp328
ag1
(S'\x07l\x01\x01\x0e\x18!\x00\x00\x00'
p329
tp330
Rp331
ag1
(S'\x07l\x01\x01\x0e\x1b\n\x00\x00\x00'
p332
tp333
Rp334
ag1
(S'\x07l\x01\x01\x0e\x1d)\x00\x00\x00'
p335
tp336
Rp337
ag1
(S'\x07l\x01\x01\x0e 8\x00\x00\x00'
p338
tp339
Rp340
ag1
(S'\x07l\x01\x01\x0e#\x02\x00\x00\x00'
p341
tp342
Rp343
ag1
(S'\x07l\x01\x01\x0e&8\x00\x00\x00'
p344
tp345
Rp346
ag1
(S'\x07l\x01\x01\x0e*6\x00\x00\x00'
p347
tp348
Rp349
ag1
(S'\x07l\x01\x01\x0e/\x08\x00\x00\x00'
p350
tp351
Rp352
ag1
(S'\x07l\x01\x01\x0e22\x00\x00\x00'
p353
tp354
Rp355
ag1
(S'\x07l\x01\x01\x0e6"\x00\x00\x00'
p356
tp357
Rp358
ag1
(S'\x07l\x01\x01\x0e81\x00\x00\x00'
p359
tp360
Rp361
ag1
(S'\x07l\x01\x01\x0e:6\x00\x00\x00'
p362
tp363
Rp364
ag1
(S'\x07l\x01\x01\x0f\x02 \x00\x00\x00'
p365
tp366
Rp367
ag1
(S'\x07l\x01\x01\x0f\x06\x03\x00\x00\x00'
p368
tp369
Rp370
ag1
(S'\x07l\x01\x01\x0f\x082\x00\x00\x00'
p371
tp372
Rp373
ag1
(S'\x07l\x01\x01\x0f\x0b:\x00\x00\x00'
p374
tp375
Rp376
ag1
(S'\x07l\x01\x01\x0f\x12\t\x00\x00\x00'
p377
tp378
Rp379
ag1
(S'\x07l\x01\x01\x0f\x16)\x00\x00\x00'
p380
tp381
Rp382
ag1
(S'\x07l\x01\x01\x0f\x1f\x03\x00\x00\x00'
p383
tp384
Rp385
ag1
(S'\x07l\x01\x01\x0f"7\x00\x00\x00'
p386
tp387
Rp388
ag1
(S'\x07l\x01\x01\x0f%/\x00\x00\x00'
p389
tp390
Rp391
ag1
(S'\x07l\x01\x01\x0f*1\x00\x00\x00'
p392
tp393
Rp394
ag1
(S'\x07l\x01\x01\x0f/(\x00\x00\x00'
p395
tp396
Rp397
ag1
(S'\x07l\x01\x01\x0f6 \x00\x00\x00'
p398
tp399
Rp400
ag1
(S'\x07l\x01\x01\x0f:\x10\x00\x00\x00'
p401
tp402
Rp403
ag1
(S'\x07l\x01\x01\x10\x04\x04\x00\x00\x00'
p404
tp405
Rp406
ag1
(S'\x07l\x01\x01\x10\n-\x00\x00\x00'
p407
tp408
Rp409
ag1
(S'\x07l\x01\x01\x10\x0f+\x00\x00\x00'
p410
tp411
Rp412
ag1
(S'\x07l\x01\x01\x10\x15\x04\x00\x00\x00'
p413
tp414
Rp415
ag1
(S'\x07l\x01\x01\x10\x18!\x00\x00\x00'
p416
tp417
Rp418
ag1
(S'\x07l\x01\x01\x10\x1a \x00\x00\x00'
p419
tp420
Rp421
ag1
(S"\x07l\x01\x01\x10\x1b'\x00\x00\x00"
p422
tp423
Rp424
ag1
(S'\x07l\x01\x01\x10\x1d4\x00\x00\x00'
p425
tp426
Rp427
ag1
(S'\x07l\x01\x01\x10 \x05\x00\x00\x00'
p428
tp429
Rp430
ag1
(S'\x07l\x01\x01\x10%\x07\x00\x00\x00'
p431
tp432
Rp433
ag1
(S"\x07l\x01\x01\x10'4\x00\x00\x00"
p434
tp435
Rp436
ag1
(S'\x07l\x01\x01\x10):\x00\x00\x00'
p437
tp438
Rp439
ag1
(S'\x07l\x01\x01\x10,\x08\x00\x00\x00'
p440
tp441
Rp442
ag1
(S'\x07l\x01\x01\x10/\x01\x00\x00\x00'
p443
tp444
Rp445
ag1
(S'\x07l\x01\x01\x102\x16\x00\x00\x00'
p446
tp447
Rp448
ag1
(S'\x07l\x01\x01\x105\x05\x00\x00\x00'
p449
tp450
Rp451
ag1
(S'\x07l\x01\x01\x109)\x00\x00\x00'
p452
tp453
Rp454
ag1
(S'\x07l\x01\x01\x10;\x0e\x00\x00\x00'
p455
tp456
Rp457
ag1
(S'\x07l\x01\x01\x11\x013\x00\x00\x00'
p458
tp459
Rp460
ag1
(S'\x07l\x01\x01\x11\x03\x12\x00\x00\x00'
p461
tp462
Rp463
ag1
(S'\x07l\x01\x01\x11\x07\x01\x00\x00\x00'
p464
tp465
Rp466
ag1
(S'\x07l\x01\x01\x11\n6\x00\x00\x00'
p467
tp468
Rp469
ag1
(S'\x07l\x01\x01\x11\x0e0\x00\x00\x00'
p470
tp471
Rp472
ag1
(S'\x07l\x01\x01\x11\x14(\x00\x00\x00'
p473
tp474
Rp475
ag1
(S'\x07l\x01\x01\x11\x1a\x16\x00\x00\x00'
p476
tp477
Rp478
ag1
(S'\x07l\x01\x01\x11!\n\x00\x00\x00'
p479
tp480
Rp481
ag1
(S'\x07l\x01\x01\x11(\x1c\x00\x00\x00'
p482
tp483
Rp484
ag1
(S'\x07l\x01\x01\x11,\x18\x00\x00\x00'
p485
tp486
Rp487
ag1
(S'\x07l\x01\x01\x111\x10\x00\x00\x00'
p488
tp489
Rp490
ag1
(S'\x07l\x01\x01\x1149\x00\x00\x00'
p491
tp492
Rp493
ag1
(S'\x07l\x01\x01\x12\x02\x0f\x00\x00\x00'
p494
tp495
Rp496
ag1
(S'\x07l\x01\x01\x12\x0b6\x00\x00\x00'
p497
tp498
Rp499
ag1
(S'\x07l\x01\x01\x12\x19\x03\x00\x00\x00'
p500
tp501
Rp502
ag1
(S"\x07l\x01\x01\x12'+\x00\x00\x00"
p503
tp504
Rp505
ag1
(S'\x07l\x01\x01\x123\x19\x00\x00\x00'
p506
tp507
Rp508
ag1
(S'\x07l\x01\x01\x12:\x19\x00\x00\x00'
p509
tp510
Rp511
ag1
(S'\x07l\x01\x01\x13\t\x0b\x00\x00\x00'
p512
tp513
Rp514
ag1
(S'\x07l\x01\x01\x13\x0f&\x00\x00\x00'
p515
tp516
Rp517
ag1
(S'\x07l\x01\x01\x13\x18\x1e\x00\x00\x00'
p518
tp519
Rp520
ag1
(S'\x07l\x01\x01\x13\x1c0\x00\x00\x00'
p521
tp522
Rp523
ag1
(S'\x07l\x01\x01\x13$2\x00\x00\x00'
p524
tp525
Rp526
ag1
(S'\x07l\x01\x01\x132\x13\x00\x00\x00'
p527
tp528
Rp529
ag1
(S'\x07l\x01\x01\x14\x0e;\x00\x00\x00'
p530
tp531
Rp532
ag1
(S'\x07l\x01\x01\x14\x1f0\x00\x00\x00'
p533
tp534
Rp535
ag1
(S'\x07l\x01\x01\x15\x08\x05\x00\x00\x00'
p536
tp537
Rp538
ag1
(S'\x07l\x01\x01\x15\x16\r\x00\x00\x00'
p539
tp540
Rp541
ag1
(S'\x07l\x01\x01\x15 8\x00\x00\x00'
p542
tp543
Rp544
ag1
(S'\x07l\x01\x01\x16\x1b:\x00\x00\x00'
p545
tp546
Rp547
ag1
(S'\x07l\x01\x01\x16,\x02\x00\x00\x00'
p548
tp549
Rp550
ag1
(S"\x07l\x01\x01\x17\n'\x00\x00\x00"
p551
tp552
Rp553
ag1
(S'\x07l\x01\x01\x17;\x1e\x00\x00\x00'
p554
tp555
Rp556
a(dp557
I3
(lp558
F0.34657359027997264
aF0.0
aF0.0
aF0.0
aF0.0
aF0.0
aF0.0
aF0.0
aF0.671838081685441
aF0.9743956162782343
aF1.1408167015349446
aF0.544320827216548
aF0.0
aF0.0
aF0.0
aF0.0
aF0.0
aF0.0
aF0.0
aF0.0
aF0.0
aF0.0
aF0.0
aF0.0
aF0.0
aF0.0
aF0.0
aF0.0
aF0.0
aF0.0
aF0.0
aF0.0
aF0.0
aF0.0
aF0.0
aF0.0
aF0.0
aF0.0
aF0.0
aF0.0
aF0.0
aF0.0
aF0.0
aF0.0
aF0.0
aF0.0
aF0.0
aF0.0
aF0.0
aF0.0
aF0.0
aF0.0
aF0.0
aF0.0
aF0.0
aF0.0
aF0.0
aF0.0
aF0.0
aF0.0
aF0.0
aF0.0
aF0.0
aF0.0
aF0.0
aF0.0
aF0.0
aF0.0
aF0.0
aF0.0
aF0.0
aF0.0
aF0.0
aF0.0
aF0.0
aF0.0
aF0.0
aF0.0
aF0.0
aF0.0
aF0.0
aF0.0
aF0.0
aF0.0
aF0.0
aF0.0
aF0.0
aF0.0
aF0.0
aF0.0
aF0.0
aF0.0
aF0.0
aF0.0
aF0.0
aF0.0
aF0.0
aF0.0
aF0.0
aF0.0
aF0.0
aF0.0
aF0.0
aF0.0
aF0.0
aF0.0
aF0.0
aF0.0
aF0.0
aF0.0
aF0.0
aF0.0
aF0.0
aF0.0
aF0.0
aF0.0
aF0.0
aF0.0
aF0.0
aF0.0
aF0.0
aF0.0
aF0.0
aF0.0
aF0.0
aF0.0
aF0.0
aF0.0
aF0.0
aF0.0
aF0.0
aF0.0
aF0.0
aF0.0
aF0.0
aF0.0
aF0.0
aF0.0
aF0.0
aF0.0
aF0.0
aF0.0
aF0.0
aF0.0
aF0.0
aF0.0
aF0.0
aF0.0
aF0.0
aF0.0
aF0.0
aF0.0
aF0.0
aF0.0
aF0.0
aF0.0
aF0.0
aF0.0
aF0.0
aF0.0
aF0.0
aF0.0
aF0.0
aF0.0
aF0.0
aF0.0
aF0.0
aF0.0
aF0.0
aF0.0
aF0.0
aF0.0
aF0.0
aF0.0
aF0.0
aF0.0
aF0.0
aF0.0
aF0.0
aF0.0
aF0.0
aF0.0
aF0.0
aF0.0
aF0.0
asI4
(lp559
F0.6321821388837977
aF0.5859940914585237
aF0.3776841048294376
aF0.25287196009490426
aF0.4456270339863192
aF0.807472520610549
aF0.8198333663821915
aF0.3149826601112952
aF2.015803544527259
aF2.5401107054495227
aF2.503778258395787
aF1.7918289765177808
aF0.9587681014535504
aF0.8187408035151299
aF0.8045246315108208
aF0.8153694597716118
aF0.6886691675091499
aF0.5667158238353938
aF0.3149004020850027
aF0.2640783285240102
aF0.23046903126331542
aF0.3239450613889004
aF0.43400124988867816
aF0.49614996120776844
aF0.39027324656812656
aF0.3222638967337839
aF0.4235649203751731
aF0.43454340848919226
aF0.4943544603283759
aF0.4672892450268651
aF0.44041441183482394
aF0.5858391831378789
aF0.6807224970334067
aF0.5797860293033255
aF0.6559739454397505
aF0.7739517246402307
aF0.9290488748148136
aF0.9967524661503782
aF0.7385619054768887
aF0.6524110763559385
aF0.6614867634351647
aF0.667424299132044
aF0.8598981074452096
aF0.8010622826577779
aF0.6628845431788555
aF0.6436320499179701
aF0.6129953015788367
aF0.7642612835515111
aF0.8240298246488409
aF0.7727740853661356
aF0.6795468353091256
aF0.49432253075528804
aF0.49522291730590146
aF0.5339188416688553
aF0.701393359606289
aF0.9434643711537741
aF0.6446783516693464
aF0.5910374444354215
aF0.9909369360052166
aF1.0400898433575536
aF0.8966936802028207
aF0.49823221635823733
aF0.39060043793986465
aF0.6042802668998357
aF0.6528573052411224
aF0.5174456340523624
aF0.4714095359722747
aF0.42659482564902973
aF0.4166610255297669
aF0.41423231482448
aF0.2161527748281877
aF0.17505587772210698
aF0.35204244184404004
aF0.3638593983843983
aF0.32002765011443535
aF0.2588457567009769
aF0.23046903126331542
aF0.30327218833404523
aF0.281170553841369
aF0.2848350385886654
aF0.4566458143898671
aF0.42477558250887815
aF0.28170576287392124
aF0.2873511134372619
aF0.3931675151894809
aF0.31964976176649923
aF0.18598848916465574
aF0.1911144467157817
aF0.18094746666983091
aF0.26483132675350557
aF0.24109853825384256
aF0.28221348865438345
aF0.40396845348274996
aF0.3291005761167242
aF0.25218019084232257
aF0.23270666837162762
aF0.2675425584469431
aF0.26872770147606895
aF0.1643867949084726
aF0.22119880538597278
aF0.22119880538597275
aF0.34796282724275285
aF0.45516379283444003
aF0.40238080398612325
aF0.46374099565892046
aF0.5339932121100472
aF0.5649495778683833
aF0.45442794812306253
aF0.27294760409915286
aF0.39852132692954073
aF0.4998221884195026
aF0.3806852128081283
aF0.36351069296148936
aF0.4062136145638681
aF0.439398213217486
aF0.4519806038877085
aF0.4556313242930435
aF0.44647019073307653
aF0.473802645147089
aF0.4308619131624553
aF0.41173593843231227
aF0.5868114649243128
aF0.6607467395222562
aF0.5942951296290719
aF0.558697171380395
aF0.676983683673541
aF0.6543862959431238
aF0.7145838110644592
aF0.7522637879521439
aF0.6643495446347581
aF0.6239239730506212
aF0.8010741430451181
aF0.8723754641818287
aF0.5733850556871798
aF0.5413685647622937
aF0.5181571597726319
aF0.4320556718254651
aF0.5311657846957288
aF0.46039597297160006
aF0.3614928975492931
aF0.3235349682857627
aF0.3861256632694852
aF0.4282939691995066
aF0.5187285753743499
aF0.4364936281405333
aF0.25532371319270253
aF0.33131462370156356
aF0.36091414188715926
aF0.3975507344170038
aF0.3677021371980168
aF0.38707540907629445
aF0.3602299844526747
aF0.2730383208734629
aF0.2955647902423613
aF0.2073830789088729
aF0.3593166365833731
aF0.4357192796663153
aF0.35409850838585194
aF0.38953780362727014
aF0.5594765542454794
aF0.62613658028507
aF0.4653390062870785
aF0.20719435125352886
aF0.2072218117711338
aF0.33046378988906727
aF0.3134529396681767
aF0.26362452782788376
aF0.20755352803766225
aF0.1170445240643967
aF0.18301702672916467
aF0.1605677098987037
aF0.08876920163961109
aF0.06655073603470879
aF0.0549121903888239
aF0.04326961248214279
aF0.1421436227032178
aF0.2694236990616103
aF0.2442672623678413
aF0.2846718135359379
aF0.25655283101491666
aF0.09866950906032189
aF0.3351735324657969
aF0.35264823739142953
aF0.24855548569969138
aF0.40078628898554075
asI5
(lp560
F2.9752275866827818
aF5.877245177248081
aF6.062317670876283
aF6.122781580578622
aF5.981048694583039
aF5.801089371424136
aF5.965946607612713
aF6.090779693941926
aF4.367927921257379
aF1.1459240397653447
aF1.9493704536913077
aF5.000930771945486
aF6.142374237683737
aF6.175058056030165
aF6.1903343960692405
aF6.1785644450331
aF6.193106984791481
aF6.214608098422218
aF6.214608098422218
aF6.214608098422218
aF6.211835509699978
aF6.206290332255498
aF6.202471247245729
aF6.1985137192978765
aF6.186882211199818
aF6.174745360023328
aF6.173019267588617
aF6.200745154811019
aF6.1785644450331
aF6.1985137192978765
aF6.214608098422218
aF6.1957411305756365
aF6.1785644450331
aF6.1985137192978765
aF6.1785644450331
aF6.153536636253933
aF6.118457152490421
aF6.138555152673968
aF6.1818201788909635
aF6.107156734402041
aF6.095927936574998
aF6.143200387791161
aF6.1785644450331
aF6.1785644450331
aF6.1818201788909635
aF6.17579185631086
aF6.1785644450331
aF6.153536636253933
aF6.149425161382825
aF6.17579185631086
aF6.192968541853396
aF6.193106984791481
aF6.1845927676132035
aF6.200745154811019
aF6.176275001446483
aF6.034315321197615
aF6.151379711019797
aF6.205243835967969
aF6.147991458809453
aF6.146652572660585
aF6.187365356335444
aF6.1957411305756365
aF6.205243835967969
aF6.193106984791481
aF6.17579185631086
aF6.1957411305756365
aF6.203517743533259
aF6.1985137192978765
aF6.203517743533259
aF6.187423364408916
aF6.200745154811019
aF6.211835509699978
aF6.208016424690209
aF6.203517743533259
aF6.203517743533259
aF6.214608098422218
aF6.214608098422218
aF6.205243835967969
aF6.203517743533259
aF6.203517743533259
aF6.203517743533259
aF6.186882211199817
aF6.181337033755337
aF6.175791856310857
aF6.200745154811019
aF6.1957411305756365
aF6.211835509699978
aF6.214608098422218
aF6.211835509699978
aF6.203517743533259
aF6.211835509699978
aF6.209062920977738
aF6.1957411305756365
aF6.208016424690209
aF6.211835509699978
aF6.208016424690209
aF6.208016424690209
aF6.211835509699978
aF6.214608098422218
aF6.214608098422218
aF6.214608098422218
aF6.200745154811019
aF6.200745154811019
aF6.211835509699978
aF6.203517743533259
aF6.190195953131156
aF6.208016424690209
aF6.209062920977738
aF6.211835509699978
aF6.205243835967969
aF6.1957411305756365
aF6.208016424690209
aF6.211835509699978
aF6.208016424690209
aF6.1957411305756365
aF6.205243835967969
aF6.1985137192978765
aF6.1647015014219
aF6.151379711019796
aF6.150838557810699
aF6.211835509699978
aF6.211835509699978
aF6.187365356335444
aF6.1845927676132035
aF6.209062920977738
aF6.205243835967969
aF6.1845927676132035
aF6.165783807840096
aF6.17579185631086
aF6.203517743533259
aF6.1903343960692405
aF6.17579185631086
aF6.143003936779603
aF6.16747409014414
aF6.123595815723924
aF6.18133703375534
aF6.1845927676132035
aF6.156309224976173
aF6.187365356335444
aF6.214608098422218
aF6.214608098422218
aF6.214608098422218
aF6.1985137192978765
aF6.175058056030165
aF6.193106984791481
aF6.211835509699978
aF6.1896547999220575
aF6.164701501421899
aF6.203517743533259
aF6.1985137192978765
aF6.18133703375534
aF6.1985137192978765
aF6.214608098422218
aF6.211835509699978
aF6.211835509699978
aF6.208016424690209
aF6.1985137192978765
aF6.1957411305756365
aF6.1903343960692405
aF6.166740289863445
aF6.157466041673376
aF6.1785644450331
aF6.208016424690209
aF6.200745154811019
aF6.18133703375534
aF6.192968541853396
aF6.180831690676908
aF6.185330371833859
aF6.1875618073470005
aF6.152490139966404
aF6.183742722337231
aF6.209062920977738
aF6.209062920977738
aF6.211835509699978
aF6.214608098422218
aF6.192968541853396
aF6.1277856048140045
aF6.147873322016864
aF6.1116332176161885
aF6.12521927535122
aF6.209062920977738
aF6.094456532073653
aF6.068596648601457
aF6.132789629049387
aF6.02622434928418
asI6
(lp561
F0.6321821388837978
aF0.5859940914585237
aF0.3776841048294376
aF0.25287196009490426
aF0.4456270339863192
aF0.8074725206105491
aF0.8198333663821915
aF0.31498266011129517
aF1.2323821229388414
aF0.629307931335117
aF0.8996386228203518
aF1.3035472736002378
aF0.9587681014535503
aF0.81874080351513
aF0.8045246315108208
aF0.8153694597716117
aF0.6886691675091499
aF0.5667158238353938
aF0.3149004020850027
aF0.26407832852401025
aF0.23046903126331544
aF0.32394506138890045
aF0.4340012498886782
aF0.49614996120776844
aF0.39027324656812656
aF0.32226389673378397
aF0.4235649203751732
aF0.4345434084891923
aF0.4943544603283759
aF0.46728924502686503
aF0.44041441183482394
aF0.5858391831378789
aF0.6807224970334068
aF0.5797860293033255
aF0.6559739454397506
aF0.7739517246402308
aF0.9290488748148136
aF0.9967524661503782
aF0.7385619054768888
aF0.666406466035272
aF0.6865992177336082
aF0.6925773630035472
aF0.8736168281798258
aF0.8010622826577779
aF0.6768997105325208
aF0.6576570332471859
aF0.6129953015788367
aF0.7642612835515111
aF0.824029824648841
aF0.7727740853661356
aF0.6795468353091256
aF0.494322530755288
aF0.5093713087539052
aF0.548030065944597
aF0.7013933596062891
aF0.9434643711537742
aF0.6587179692174514
aF0.6050673177450595
aF0.9909369360052166
aF1.0529529141821703
aF0.9307586036547713
aF0.5237701931023883
aF0.39060043793986465
aF0.6042802668998357
aF0.6528573052411225
aF0.5174456340523624
aF0.47140953597227475
aF0.4265948256490298
aF0.41666102552976697
aF0.4142323148244799
aF0.21615277482818768
aF0.17505587772210698
aF0.3662896188442231
aF0.3781021894161536
aF0.32002765011443535
aF0.258845756700977
aF0.23046903126331544
aF0.30327218833404523
aF0.281170553841369
aF0.28483503858866543
aF0.4566458143898671
aF0.4247755825088781
aF0.2817057628739213
aF0.2873511134372619
aF0.3931675151894809
aF0.3339488335901919
aF0.20035059143797004
aF0.1911144467157817
aF0.18094746666983091
aF0.2791303985771982
aF0.27744236901334446
aF0.318544580512529
aF0.418189169226237
aF0.34334775311690724
aF0.27803551506998586
aF0.24703540176703032
aF0.2675425584469431
aF0.26872770147606895
aF0.16438679490847258
aF0.22119880538597275
aF0.22119880538597275
aF0.3479628272427528
aF0.45516379283444003
aF0.41660151972961024
aF0.47791227066175
aF0.5339932121100472
aF0.5789988924099305
aF0.46860830373562956
aF0.27294760409915286
aF0.39852132692954073
aF0.4998221884195026
aF0.3806852128081283
aF0.36351069296148936
aF0.4062136145638682
aF0.439398213217486
aF0.4519806038877085
aF0.4556313242930435
aF0.44647019073307664
aF0.47380264514708903
aF0.4308619131624553
aF0.41173593843231227
aF0.5868114649243128
aF0.6607467395222562
aF0.5942951296290719
aF0.558697171380395
aF0.676983683673541
aF0.6543862959431238
aF0.7145838110644593
aF0.7522637879521439
aF0.6894823552551652
aF0.6490871252212453
aF0.8010741430451181
aF0.8723754641818287
aF0.5733850556871798
aF0.5413685647622937
aF0.5181571597726319
aF0.44627638756895205
aF0.5566853705704881
aF0.49635893053528884
aF0.4073119739939491
aF0.36944205498701915
aF0.4117989406276535
aF0.4282939691995066
aF0.5187285753743499
aF0.4364936281405333
aF0.25532371319270253
aF0.3313146237015636
aF0.36091414188715926
aF0.39755073441700384
aF0.3677021371980168
aF0.38707540907629445
aF0.3602299844526746
aF0.2873331191896302
aF0.3213860716599814
aF0.23331395638555266
aF0.37355503200719403
aF0.4357192796663153
aF0.35409850838585194
aF0.3895378036272702
aF0.5594765542454794
aF0.6401907257491894
aF0.4795418846697119
aF0.20719435125352886
aF0.20722181177113375
aF0.3304637898890673
aF0.3134529396681767
aF0.2636245278278838
aF0.20755352803766228
aF0.1170445240643967
aF0.1830170267291647
aF0.17493394440636292
aF0.10316819021727236
aF0.06655073603470879
aF0.06932332475694856
aF0.06932332475694856
aF0.1565180961543803
aF0.26942369906161034
aF0.2442672623678413
aF0.2846718135359379
aF0.25655283101491666
aF0.09866950906032189
aF0.3351735324657969
aF0.3526482373914296
aF0.24855548569969144
aF0.40078628898554075
asI7
(lp562
F0.6660005696451781
aF1.6436499587624902
aF1.298080233288285
aF1.2655636350696549
aF0.846089669294386
aF1.4686657280895796
aF1.0192904876200086
aF0.5680005375121251
aF3.519038520590226
aF5.928758606943636
aF5.535294220546319
aF3.283429875368915
aF2.035657609029209
aF2.2706043996661163
aF2.464915407561657
aF2.65387429928853
aF2.6234025708875968
aF2.2843663004860435
aF2.096026405077755
aF2.210262595028995
aF2.241332963571611
aF2.225429091429872
aF2.0534009545981715
aF2.3337565303050827
aF2.213009184778288
aF2.337246722524456
aF2.374450483799162
aF2.1753650614672475
aF2.224141223367637
aF2.348846281310331
aF2.2138845786471437
aF2.394728847317406
aF2.4889547474919684
aF2.3590077996720806
aF2.206481950289208
aF2.2965993835332092
aF2.5098760516024257
aF2.422016445015455
aF2.1057874358327573
aF1.9373152742101059
aF1.58202116299639
aF1.6855858697992687
aF2.063969905501865
aF1.9319346708858705
aF1.967718783269914
aF1.8106646587246498
aF2.013657868849023
aF1.886539237744522
aF1.8968903807424453
aF1.7473947504962943
aF1.955999725698503
aF1.8400807429148585
aF2.0357475762444404
aF2.0704213677690246
aF2.2027602455449635
aF2.2671138506278896
aF1.9202352174010762
aF1.9741659253165844
aF2.564250053154364
aF2.8890453839688757
aF2.4434211951036247
aF1.7344234596657826
aF1.7013925323506802
aF1.8775878362553697
aF2.0371877781148275
aF1.8202506921104595
aF1.9036190435067293
aF1.8820248332788203
aF2.01243214186778
aF2.032958681251868
aF1.8554133523822323
aF1.7491482419598026
aF2.0284489431641552
aF1.94378424075056
aF1.6252710001612094
aF1.9073316520685313
aF1.9747936794085155
aF2.155405382405841
aF2.0495060462948973
aF2.1063109863254703
aF2.268380098288459
aF2.2774154187195905
aF2.22897482875631
aF2.2622567143660524
aF2.172688733978055
aF2.026752875929798
aF2.1303944932664427
aF2.313818451304598
aF2.010726831940521
aF2.0412645849124678
aF2.1920276950376247
aF2.113333760489155
aF2.35554115080618
aF2.3228440538851487
aF2.131406114857141
aF2.2565132742256697
aF2.2320368691248245
aF2.076786591967837
aF1.8321065699041288
aF2.1127447519024445
aF2.2961805676126055
aF2.425558823928747
aF2.223265025665846
aF2.0988912717392196
aF2.213068030396718
aF2.156959248833152
aF2.182647820952103
aF2.103929220356224
aF2.0246990632404547
aF2.006186553983152
aF1.985811359472362
aF1.817392980984608
aF2.1035167045298446
aF2.2086863929826306
aF2.1918902086495673
aF2.1303870429086085
aF2.1174482587757693
aF2.034817321973912
aF2.0820442262295367
aF2.0358167173687383
aF2.0751976683745434
aF2.152757027286836
aF2.1605228518864545
aF1.9923076237694863
aF1.7634323256380438
aF1.9811588520861794
aF1.9721649120954154
aF2.125536077356117
aF2.0481243939180973
aF1.9155685871371673
aF2.1264076566363443
aF2.3266796757999373
aF2.5542559551718553
aF2.2723113105079955
aF2.119732349811113
aF2.1776790558468764
aF2.0485776784366188
aF2.049586501606254
aF1.899212038513098
aF1.867134970233609
aF1.5395086035389656
aF1.6252205188376059
aF2.0198400066045004
aF2.177788863039643
aF2.266249018634629
aF2.1840645404709256
aF2.1359633688092257
aF2.184635293412248
aF1.9292056918222387
aF1.6070136555530439
aF1.6414366921370842
aF1.4734019233209945
aF1.4489049652692252
aF1.430509375060973
aF1.555817215043826
aF1.9664806454211423
aF2.0966891458476673
aF2.1160078519006413
aF2.052713233613799
aF1.873294861435192
aF1.7761964044334644
aF1.7242455679126514
aF1.464227541140857
aF1.4971697016067256
aF1.669028907921787
aF1.5742644516737807
aF1.3267667038411832
aF1.6116964058603038
aF1.1988232883553511
aF0.8778413370208336
aF0.8320171377409967
aF0.7186573497445274
aF0.704692186420373
aF0.7069582804536153
aF0.7311931433960651
aF0.8236011861272802
aF0.9451415276854864
aF0.919053608155277
aF0.55822611905286
aF0.9245237236508984
aF0.09643807354717977
aF0.710837912590606
aF0.9727112248297481
aF0.26017888277558693
aF1.062926214893255
asI8
(lp563
F1.6339367087799184
aF2.9806176531683035
aF2.789762670563127
aF2.4267269281798973
aF2.87441807725774
aF2.851548221188151
aF1.3813613691298645
aF0.5553766634498992
aF1.8221414957316968
aF0.9386289633562341
aF1.3262801693381447
aF2.9238313482384757
aF3.375839126618174
aF3.237218670324157
aF3.2958521641781884
aF3.5764884224003906
aF3.387915257804376
aF2.908552141034395
aF2.7605594871241994
aF2.81610916342624
aF2.9017244375898312
aF2.676887145615203
aF2.7981886470888884
aF3.3462691615061235
aF3.258866393434951
aF3.297647183314441
aF3.3305647688531823
aF2.979455426538434
aF3.2088676455410905
aF3.290528795702556
aF2.7738760589316556
aF3.1354649988038337
aF3.4395910739544884
aF3.505885147107068
aF3.097545020483788
aF3.160192083332678
aF3.454689039393089
aF3.4631568463415077
aF3.100695838822853
aF3.219751781629085
aF3.1278340913650293
aF2.9977235756257796
aF3.3883433773502394
aF3.5064404839153474
aF3.2529251603822202
aF3.047585947265169
aF3.19719627257404
aF3.3401990557435184
aF3.396587636205507
aF2.909330317843593
aF2.9238637841178923
aF3.131836664407733
aF3.1655608365317494
aF3.0097436228475822
aF3.237845346224327
aF3.4366073103114743
aF3.242275369879909
aF3.340003377278103
aF3.5422187311233526
aF3.5292121051137424
aF3.3143684664557966
aF2.436427354469699
aF2.277814675170561
aF2.9372924659316126
aF3.1599252555242265
aF2.7074067357007983
aF2.5461137372681693
aF2.324071024418884
aF2.9631161853043944
aF2.8757564170874486
aF2.3724978129962024
aF2.018170626530207
aF2.627219579519802
aF2.434365135587765
aF2.518493062660864
aF2.684935067396852
aF2.483513830592882
aF2.810559101681922
aF3.1316746963519213
aF3.155734144608186
aF3.3010928435182656
aF3.3856082443006876
aF2.9978707118871077
aF2.927147386923234
aF3.00454510180011
aF3.0464820582635794
aF3.0023451998538055
aF3.447150878002535
aF3.253295552810573
aF3.2297683990962978
aF3.1647893328978665
aF3.19170671042296
aF3.4402343515341687
aF3.174858674364714
aF3.115786325590464
aF3.399868237800039
aF3.3388379448245082
aF3.184687975274828
aF2.8055769109718143
aF2.830698810490949
aF3.2374002422715664
aF3.359885226981947
aF3.485691263200766
aF3.314468405693337
aF3.3199974588740098
aF3.5356417640862134
aF3.3869867281937682
aF3.04219379741808
aF3.0404669832145372
aF3.2655367278029424
aF3.1344672245936565
aF2.6635669810120373
aF2.7795371532374324
aF3.0555686427768927
aF3.150546872853839
aF3.271353991219756
aF3.2457168688879703
aF3.2588812258234174
aF3.2118244490674814
aF2.927961159872905
aF3.0683265486084537
aF2.9339868833047706
aF3.176540933526578
aF3.1863210709859247
aF2.9816839561986477
aF3.3046353912085458
aF3.2398903189283703
aF3.2727878303823514
aF3.164667633084151
aF3.2816448593134586
aF3.350691599361006
aF3.3230613844693826
aF3.7692837866216715
aF3.3605033057087956
aF3.260150784417181
aF3.4727397014842887
aF3.4839268273286708
aF3.3741513308772735
aF3.113521055275356
aF2.5582892674014865
aF2.444783128088687
aF2.8308490180596593
aF2.978918077564166
aF3.292124313785915
aF3.257162517440918
aF2.7677351734917317
aF2.674924551944389
aF3.2366309668273745
aF3.03883194714327
aF2.5593282716442434
aF2.8363631284797064
aF2.5357051029143
aF2.72792040086162
aF2.7484643111307485
aF2.722661323229
aF3.323570458698065
aF3.389431537193271
aF3.1859150230723645
aF3.199814916861089
aF2.5423750158953036
aF2.7161525574594267
aF2.8530833080449494
aF2.4563285757488393
aF2.1936564590272893
aF2.977932069719921
aF3.116401699203737
aF3.2499946118735474
aF2.746101026284197
aF2.0276109700807106
aF2.3961330989225544
aF2.5306610953592026
aF2.7872228995152213
aF2.8976814692510087
aF2.9473224677304524
aF2.625202244622533
aF2.9898667912948627
aF2.8353987716538667
aF2.6278011512401456
aF2.5668982717368425
aF1.896591162206851
aF1.7008229448343901
aF2.808774593697886
aF2.758708017457664
aF2.922475928261374
aF2.818049415238841
as(dp564
(I7
I3
tp565
(lp566
F0.6660005696451781
aF1.64364995876249
aF1.2980802332882853
aF1.265563635069655
aF0.8460896692943861
aF1.4686657280895796
aF1.0192904876200086
aF0.5680005375121252
aF3.519038520590226
aF5.928758606943636
aF5.535294220546318
aF3.283429875368915
aF2.035657609029209
aF2.2706043996661154
aF2.464915407561657
aF2.653874299288529
aF2.6234025708875968
aF2.2843663004860435
aF2.096026405077756
aF2.2102625950289956
aF2.2413329635716113
aF2.2254290914298727
aF2.053400954598172
aF2.3337565303050827
aF2.2130091847782882
aF2.337246722524456
aF2.3744504837991625
aF2.1753650614672475
aF2.224141223367637
aF2.3488462813103315
aF2.2138845786471433
aF2.3947288473174067
aF2.4889547474919684
aF2.3590077996720806
aF2.2064819502892075
aF2.2965993835332092
aF2.5098760516024257
aF2.422016445015455
aF2.105787435832757
aF1.9373152742101063
aF1.5820211629963898
aF1.6855858697992685
aF2.063969905501865
aF1.931934670885871
aF1.9677187832699143
aF1.8106646587246498
aF2.0136578688490236
aF1.8865392377445225
aF1.8968903807424453
aF1.7473947504962948
aF1.9559997256985031
aF1.8400807429148587
aF2.035747576244441
aF2.070421367769024
aF2.2027602455449626
aF2.2671138506278887
aF1.9202352174010755
aF1.9741659253165842
aF2.564250053154364
aF2.889045383968876
aF2.443421195103625
aF1.734423459665783
aF1.70139253235068
aF1.8775878362553695
aF2.0371877781148275
aF1.820250692110459
aF1.9036190435067293
aF1.8820248332788205
aF2.0124321418677806
aF2.032958681251868
aF1.8554133523822323
aF1.7491482419598026
aF2.0284489431641557
aF1.94378424075056
aF1.6252710001612094
aF1.907331652068531
aF1.9747936794085152
aF2.155405382405841
aF2.049506046294897
aF2.1063109863254703
aF2.2683800982884588
aF2.27741541871959
aF2.2289748287563103
aF2.2622567143660524
aF2.172688733978055
aF2.0267528759297986
aF2.1303944932664423
aF2.3138184513045976
aF2.010726831940521
aF2.0412645849124678
aF2.192027695037625
aF2.113333760489155
aF2.3555411508061805
aF2.3228440538851483
aF2.131406114857141
aF2.2565132742256697
aF2.232036869124825
aF2.076786591967837
aF1.8321065699041288
aF2.1127447519024445
aF2.2961805676126055
aF2.4255588239287476
aF2.2232650256658464
aF2.0988912717392196
aF2.213068030396717
aF2.156959248833152
aF2.1826478209521025
aF2.1039292203562243
aF2.024699063240455
aF2.0061865539831523
aF1.9858113594723623
aF1.8173929809846079
aF2.103516704529845
aF2.2086863929826306
aF2.1918902086495673
aF2.1303870429086085
aF2.1174482587757693
aF2.0348173219739114
aF2.0820442262295376
aF2.0358167173687387
aF2.075197668374544
aF2.152757027286836
aF2.160522851886454
aF1.9923076237694863
aF1.763432325638044
aF1.9811588520861791
aF1.972164912095416
aF2.1255360773561174
aF2.0481243939180978
aF1.9155685871371677
aF2.126407656636344
aF2.3266796757999373
aF2.554255955171856
aF2.2723113105079955
aF2.119732349811113
aF2.1776790558468764
aF2.0485776784366188
aF2.0495865016062544
aF1.8992120385130973
aF1.8671349702336093
aF1.5395086035389658
aF1.6252205188376059
aF2.0198400066045004
aF2.1777888630396434
aF2.2662490186346296
aF2.1840645404709256
aF2.1359633688092257
aF2.1846352934122475
aF1.9292056918222387
aF1.6070136555530439
aF1.6414366921370838
aF1.4734019233209947
aF1.448904965269225
aF1.4305093750609728
aF1.555817215043826
aF1.966480645421142
aF2.0966891458476673
aF2.116007851900641
aF2.0527132336137996
aF1.8732948614351923
aF1.7761964044334648
aF1.7242455679126518
aF1.4642275411408572
aF1.4971697016067258
aF1.6690289079217868
aF1.5742644516737805
aF1.3267667038411832
aF1.6116964058603036
aF1.1988232883553511
aF0.8778413370208336
aF0.8320171377409967
aF0.7186573497445274
aF0.7046921864203731
aF0.7069582804536154
aF0.7311931433960652
aF0.8236011861272802
aF0.9451415276854865
aF0.919053608155277
aF0.55822611905286
aF0.9245237236508983
aF0.09643807354717979
aF0.7108379125906059
aF0.9727112248297483
aF0.2601788827755869
aF1.062926214893255
as(I4
I7
tp567
(lp568
F0.702419234196804
aF1.7132955379798382
aF1.3330928943750446
aF1.2862867471056576
aF0.8957181097643453
aF1.5541669300843615
aF1.0819834261090842
aF0.5857145723237984
aF3.600440137673796
aF5.98824522533489
aF5.583479623472441
aF3.449671728927197
aF2.2737417708777485
aF2.443203962185957
aF2.5993211826432745
aF2.8533810611262775
aF2.7785000465804575
aF2.3768382649948068
aF2.1807399138339694
aF2.281383664508318
aF2.2893620158019385
aF2.284364322328924
aF2.1230346512609137
aF2.4130905965531206
aF2.285053409604769
aF2.3991192553786123
aF2.442903188470981
aF2.2321909919790177
aF2.333574501817405
aF2.4713759059378266
aF2.2721232743157502
aF2.4552771150442703
aF2.565238506928583
aF2.4231173626934055
aF2.2686360050867806
aF2.368701007043424
aF2.718448516321331
aF2.6088546487578115
aF2.1960997191526745
aF1.9841127377956012
aF1.6402901891854202
aF1.7953749595559958
aF2.225009508335283
aF2.0475210986891033
aF2.0443285218233935
aF1.867789046960837
aF2.0871654904668033
aF2.0002718536519026
aF2.0417666775999583
aF1.8441730803067398
aF2.042192748355008
aF1.9066477696744026
aF2.067978980072172
aF2.1177796867238223
aF2.28024498367767
aF2.398313630855626
aF1.9990384542501936
aF2.0465700527860786
aF2.728781714268712
aF3.120570239570889
aF2.6507599577715064
aF1.8293531476772245
aF1.7940877094617136
aF2.008166794933307
aF2.1500248128678976
aF1.88481125786836
aF1.9833491257734597
aF1.938562513811267
aF2.0422010903106367
aF2.072378023747468
aF1.8953814030855747
aF1.7807028302402024
aF2.1000652771149366
aF1.99457694603383
aF1.6758403627122074
aF1.9685330958531406
aF2.0393574653725643
aF2.27155922818315
aF2.124671785227186
aF2.1331787183724593
aF2.304728839804488
aF2.32948495801871
aF2.271055918147102
aF2.298064104098273
aF2.201703052854029
aF2.0517574403110914
aF2.158529493182962
aF2.344566170763994
aF2.0542009622187454
aF2.0968238528632273
aF2.2115217756601164
aF2.137332347972587
aF2.385092237311669
aF2.3386694945514552
aF2.175862730854483
aF2.3086091117264758
aF2.288275534964406
aF2.138223387901904
aF1.8556716050496802
aF2.1165638369122135
aF2.3205535422013432
aF2.473420596039645
aF2.274988707272946
aF2.1629934533782156
aF2.252934258200576
aF2.2265103087037517
aF2.2800268894467526
aF2.201373430626677
aF2.075455101721079
aF2.0480876637495267
aF2.0626504124686096
aF1.866036560078103
aF2.165976447678222
aF2.288944912808356
aF2.2672234267099833
aF2.1978535838691067
aF2.190836964166716
aF2.1147582240015548
aF2.1625580850255854
aF2.094262990468338
aF2.1192192612344454
aF2.2462280048798875
aF2.279053672812121
aF2.077611910183177
aF1.8195858941728293
aF2.0421801793373513
aF2.0200970974594563
aF2.1715617773332294
aF2.1285646473939552
aF1.987928463453579
aF2.167165091705526
aF2.4126088443326172
aF2.7580521464923855
aF2.404164149089001
aF2.166576065617953
aF2.21175579830516
aF2.0860309243136514
aF2.0931267550298305
aF1.960765154087028
aF1.957862116303009
aF1.5785010523537761
aF1.7226946341558504
aF2.1054979098306785
aF2.2088838941884945
aF2.293632602286052
aF2.2116846536430206
aF2.1945688330728608
aF2.2572107340547576
aF2.011434616870075
aF1.6726388840992688
aF1.6906889554942768
aF1.5047374374983056
aF1.4803250864058313
aF1.445924158038132
aF1.5832981299748219
aF2.03355918865791
aF2.1872443008462357
aF2.1939348199193716
aF2.0942547186566705
aF1.961771955972603
aF1.855773855814953
aF1.7743174782194755
aF1.5016910587452446
aF1.5232707697524805
aF1.6718014966440267
aF1.5890354486344247
aF1.3475882213247385
aF1.6259262496118503
aF1.2042300228617466
aF0.8900885086069963
aF0.8460185242902796
aF0.7252490234765361
aF0.7074647751426129
aF0.709730869175855
aF0.7311931433960651
aF0.8336092345980439
aF0.9668250054071346
aF0.9374897432024346
aF0.5838647094374735
aF0.9491101220107089
aF0.10144209778256166
aF0.7410496944111783
aF1.0049512971942678
aF0.2789794513653207
aF1.099456252767788
as(I4
I8
tp569
(lp570
F1.6566666827890952
aF3.0317013730113174
aF2.8170954269140807
aF2.4388637793563857
aF2.905489883637253
aF2.930353279369098
aF1.4694848332570407
aF0.6142002617096598
aF2.7092378670911437
aF2.8874778750128605
aF3.0148856076621087
aF3.5696486574020696
aF3.524521967925438
aF3.3469045887234743
aF3.3801962545226205
aF3.673725707538667
aF3.4456323657503325
aF2.9301336895297405
aF2.779484463044255
aF2.8349761312728217
aF2.9149077850538476
aF2.6921634856542784
aF2.8208746999452385
aF3.382876166047147
aF3.2867307235954333
aF3.3248319173277405
aF3.3600389464531
aF3.008710955183985
aF3.254642461524803
aF3.3291707847451617
aF2.8001043109216073
aF3.1827799541082977
aF3.5126272548761523
aF3.565763982447481
aF3.167194632489426
aF3.256852256005202
aF3.614356601019694
aF3.63610622441604
aF3.163414850358552
aF3.2734096473178003
aF3.19287858546634
aF3.0702242990756177
aF3.5065024456558445
aF3.613421321343133
aF3.331259747265587
aF3.12004015418375
aF3.24303143219378
aF3.4066736633951478
aF3.511993749914346
aF3.013385398353593
aF2.993750667929071
aF3.178451717419521
aF3.195978877611779
aF3.0440031757285153
aF3.3207528159729893
aF3.5658456009698867
aF3.281604813707025
aF3.3814663837168544
aF3.690227072786663
aF3.7234777717943004
aF3.430753683550695
aF2.4739686430912644
aF2.3214964985792164
aF2.9905572007488823
aF3.208356415234904
aF2.7450022284558764
aF2.591575857245049
aF2.3624139296425146
aF2.9875603367861605
aF2.906876481105794
aF2.3884537491824593
aF2.020943215252447
aF2.6473072967226634
aF2.453232103434346
aF2.535128594994304
aF2.6925732374163895
aF2.4862864193151224
aF2.826148137727832
aF3.1493567249728893
aF3.17709681530084
aF3.3311886091918907
aF3.40325446279099
aF3.008961066776067
aF2.9382377418121948
aF3.0270927117183772
aF3.062437994449836
aF3.0155285473178224
aF3.463106814188792
aF3.259887226542582
aF3.2467708315700823
aF3.169288014054816
aF3.1972518878674387
aF3.4618739081029894
aF3.188685807845247
aF3.121527954046502
aF3.4064599115320475
aF3.3571995695926593
aF3.2108262130006
aF2.814941173426063
aF2.833471399213189
aF3.245718008438286
aF3.374794666880676
aF3.510873018903188
aF3.3531103947359435
aF3.3634828312711065
aF3.5770102487397093
aF3.4231048918618954
aF3.0739894247953186
aF3.0505108418159677
aF3.2832187564239095
aF3.17877063607602
aF2.699865093486187
aF2.797415632869959
aF3.0844436590942372
aF3.187642718267759
aF3.2997651703266104
aF3.286279509579533
aF3.2943837260034385
aF3.2528943246347906
aF2.9611964144091156
aF3.0948316864745733
aF2.983490770034074
aF3.2307235299411907
aF3.2410932492835403
aF3.0307725141136994
aF3.364550036679627
aF3.308180738639645
aF3.360554610890581
aF3.263286079611273
aF3.336658113356575
aF3.4080979234427766
aF3.422783650283551
aF3.8689721717811554
aF3.403515815950953
aF3.3116092207834558
aF3.5209202060498943
aF3.5199346705871233
aF3.4282439130277074
aF3.146112523795052
aF2.5681946830648323
aF2.4601979110658463
aF2.870106670590373
aF3.0124660281072124
aF3.353855065955887
aF3.2927230256944116
aF2.7767325358056327
aF2.6899724347812017
aF3.249447414151044
aF3.0627029392252316
aF2.5761022469157657
aF2.8591876242741403
aF2.563430990136698
aF2.740057252038107
aF2.771011921049014
aF2.73375167811796
aF3.340711334109936
aF3.4237490981476784
aF3.230839793780107
aF3.2401829983384065
aF2.6150158655775466
aF2.8009846912999996
aF2.90468018734931
aF2.462920249480848
aF2.2057933102037777
aF3.010661981177701
aF3.1446329295045667
aF3.274635214366872
aF2.763783054905165
aF2.0303835588029506
aF2.403771268942093
aF2.53829926537874
aF2.7910419845249907
aF2.8976814692510082
aF2.947322467730451
aF2.625202244622533
aF2.9976434042524844
aF2.850504662564152
aF2.638350352920007
aF2.581463009438031
aF1.9111558999080391
aF1.7058269690697718
aF2.832645585779848
aF2.7822216887988485
aF2.93670577201292
aF2.8486020953169913
as(I5
I6
tp571
(lp572
F2.975227586682781
aF5.877245177248082
aF6.062317670876284
aF6.122781580578622
aF5.9810486945830394
aF5.801089371424139
aF5.965946607612713
aF6.130696636474327
aF4.390108631035299
aF1.1542418059320638
aF1.9493704536913072
aF5.086881022334925
aF6.142374237683737
aF6.175058056030165
aF6.1903343960692405
aF6.1785644450331
aF6.1931069847914815
aF6.214608098422218
aF6.214608098422218
aF6.214608098422218
aF6.211835509699978
aF6.206290332255498
aF6.202471247245729
aF6.1985137192978765
aF6.203517743533259
aF6.208016424690209
aF6.211835509699978
aF6.200745154811019
aF6.178564445033101
aF6.1985137192978765
aF6.214608098422218
aF6.1957411305756365
aF6.1785644450331
aF6.1985137192978765
aF6.178564445033101
aF6.153536636253933
aF6.1212297412126615
aF6.138555152673968
aF6.181820178890963
aF6.182016629902521
aF6.190195953131156
aF6.190334396069241
aF6.1785644450331
aF6.1785644450331
aF6.1818201788909635
aF6.175791856310861
aF6.1785644450331
aF6.153536636253933
aF6.149425161382825
aF6.1785644450331
aF6.1957411305756365
aF6.193106984791481
aF6.184592767613203
aF6.200745154811019
aF6.1845927676132035
aF6.1424462813649745
aF6.192968541853396
aF6.20524383596797
aF6.150764047531693
aF6.149425161382825
aF6.187365356335443
aF6.1957411305756365
aF6.205243835967969
aF6.193106984791481
aF6.17579185631086
aF6.1957411305756365
aF6.203517743533259
aF6.1985137192978765
aF6.203517743533259
aF6.195741130575637
aF6.200745154811019
aF6.211835509699978
aF6.208016424690209
aF6.203517743533259
aF6.203517743533259
aF6.214608098422218
aF6.214608098422218
aF6.205243835967969
aF6.203517743533259
aF6.203517743533259
aF6.203517743533259
aF6.203517743533258
aF6.214608098422218
aF6.211835509699978
aF6.200745154811019
aF6.195741130575637
aF6.211835509699978
aF6.214608098422218
aF6.211835509699978
aF6.203517743533259
aF6.211835509699978
aF6.209062920977738
aF6.1957411305756365
aF6.20801642469021
aF6.211835509699978
aF6.208016424690209
aF6.208016424690209
aF6.211835509699978
aF6.214608098422218
aF6.214608098422218
aF6.214608098422218
aF6.200745154811019
aF6.200745154811019
aF6.211835509699978
aF6.203517743533259
aF6.1957411305756365
aF6.208016424690209
aF6.209062920977738
aF6.211835509699978
aF6.208016424690209
aF6.1985137192978765
aF6.208016424690209
aF6.211835509699978
aF6.208016424690209
aF6.1957411305756365
aF6.205243835967969
aF6.1985137192978765
aF6.18133703375534
aF6.1957411305756365
aF6.200745154811019
aF6.211835509699978
aF6.211835509699978
aF6.187365356335443
aF6.184592767613203
aF6.209062920977738
aF6.205243835967969
aF6.184592767613203
aF6.165783807840096
aF6.175791856310861
aF6.203517743533259
aF6.190334396069241
aF6.17579185631086
aF6.176275001446483
aF6.200745154811019
aF6.184592767613203
aF6.18133703375534
aF6.187365356335443
aF6.159081813698413
aF6.187365356335444
aF6.214608098422218
aF6.214608098422218
aF6.214608098422218
aF6.1985137192978765
aF6.175058056030165
aF6.193106984791481
aF6.211835509699978
aF6.214608098422218
aF6.211835509699978
aF6.203517743533259
aF6.1985137192978765
aF6.18133703375534
aF6.1985137192978765
aF6.214608098422218
aF6.211835509699978
aF6.211835509699978
aF6.208016424690209
aF6.1985137192978765
aF6.1957411305756365
aF6.1903343960692405
aF6.175058056030165
aF6.165783807840096
aF6.1785644450331
aF6.20801642469021
aF6.200745154811019
aF6.18133703375534
aF6.192968541853397
aF6.180831690676908
aF6.185330371833858
aF6.1875618073470005
aF6.152490139966404
aF6.183742722337231
aF6.209062920977738
aF6.209062920977738
aF6.211835509699978
aF6.214608098422218
aF6.192968541853397
aF6.1277856048140045
aF6.147873322016865
aF6.11163321761619
aF6.1252192753512205
aF6.209062920977738
aF6.094456532073653
aF6.068596648601457
aF6.132789629049387
aF6.02622434928418
as(I3
I7
tp573
(lp574
F0.6660005696451781
aF1.6436499587624898
aF1.2980802332882848
aF1.2655636350696549
aF0.8460896692943861
aF1.4686657280895796
aF1.0192904876200088
aF0.5680005375121251
aF3.519038520590226
aF5.928758606943636
aF5.535294220546318
aF3.283429875368915
aF2.035657609029209
aF2.2706043996661154
aF2.464915407561657
aF2.6538742992885296
aF2.623402570887597
aF2.2843663004860435
aF2.096026405077756
aF2.210262595028995
aF2.2413329635716113
aF2.2254290914298727
aF2.0534009545981715
aF2.3337565303050827
aF2.213009184778288
aF2.337246722524456
aF2.374450483799162
aF2.1753650614672475
aF2.224141223367637
aF2.3488462813103315
aF2.2138845786471437
aF2.394728847317407
aF2.488954747491969
aF2.3590077996720806
aF2.206481950289208
aF2.296599383533209
aF2.509876051602425
aF2.422016445015455
aF2.105787435832757
aF1.937315274210106
aF1.5820211629963898
aF1.6855858697992687
aF2.0639699055018657
aF1.931934670885871
aF1.9677187832699141
aF1.8106646587246495
aF2.0136578688490236
aF1.886539237744522
aF1.8968903807424449
aF1.7473947504962943
aF1.9559997256985033
aF1.8400807429148587
aF2.0357475762444412
aF2.0704213677690246
aF2.202760245544963
aF2.2671138506278896
aF1.9202352174010764
aF1.974165925316584
aF2.5642500531543644
aF2.8890453839688766
aF2.443421195103625
aF1.7344234596657833
aF1.7013925323506802
aF1.87758783625537
aF2.0371877781148275
aF1.8202506921104598
aF1.903619043506729
aF1.8820248332788205
aF2.0124321418677797
aF2.0329586812518676
aF1.855413352382232
aF1.7491482419598021
aF2.0284489431641557
aF1.94378424075056
aF1.6252710001612094
aF1.9073316520685313
aF1.9747936794085161
aF2.155405382405841
aF2.049506046294897
aF2.1063109863254703
aF2.268380098288459
aF2.27741541871959
aF2.2289748287563103
aF2.2622567143660515
aF2.1726887339780547
aF2.0267528759297986
aF2.1303944932664427
aF2.313818451304597
aF2.010726831940521
aF2.0412645849124678
aF2.1920276950376247
aF2.113333760489155
aF2.35554115080618
aF2.3228440538851487
aF2.131406114857141
aF2.2565132742256697
aF2.232036869124825
aF2.076786591967837
aF1.8321065699041288
aF2.112744751902445
aF2.296180567612606
aF2.4255588239287476
aF2.223265025665846
aF2.098891271739219
aF2.213068030396717
aF2.1569592488331524
aF2.182647820952103
aF2.103929220356224
aF2.024699063240455
aF2.0061865539831523
aF1.9858113594723625
aF1.8173929809846079
aF2.103516704529844
aF2.208686392982631
aF2.191890208649567
aF2.130387042908608
aF2.117448258775769
aF2.0348173219739114
aF2.082044226229537
aF2.0358167173687387
aF2.075197668374543
aF2.1527570272868366
aF2.160522851886454
aF1.992307623769486
aF1.7634323256380438
aF1.981158852086179
aF1.9721649120954157
aF2.125536077356117
aF2.0481243939180978
aF1.9155685871371675
aF2.126407656636344
aF2.3266796757999373
aF2.554255955171855
aF2.272311310507996
aF2.1197323498111134
aF2.1776790558468773
aF2.048577678436619
aF2.0495865016062544
aF1.8992120385130982
aF1.8671349702336089
aF1.5395086035389658
aF1.6252205188376057
aF2.0198400066045004
aF2.177788863039643
aF2.2662490186346296
aF2.184064540470926
aF2.1359633688092257
aF2.184635293412248
aF1.9292056918222384
aF1.607013655553044
aF1.6414366921370842
aF1.473401923320995
aF1.448904965269225
aF1.430509375060973
aF1.5558172150438265
aF1.9664806454211423
aF2.0966891458476677
aF2.116007851900641
aF2.052713233613799
aF1.873294861435192
aF1.7761964044334646
aF1.7242455679126518
aF1.464227541140857
aF1.4971697016067258
aF1.669028907921787
aF1.5742644516737807
aF1.3267667038411834
aF1.6116964058603032
aF1.1988232883553513
aF0.8778413370208337
aF0.8320171377409967
aF0.7186573497445273
aF0.7046921864203729
aF0.7069582804536152
aF0.731193143396065
aF0.8236011861272802
aF0.9451415276854864
aF0.919053608155277
aF0.55822611905286
aF0.9245237236508984
aF0.09643807354717979
aF0.7108379125906059
aF0.9727112248297481
aF0.26017888277558693
aF1.062926214893255
as(I8
I5
tp575
(lp576
F3.0529345811845037
aF6.033128490174694
aF6.14878137536631
aF6.193106984791481
aF6.110045568119561
aF5.996296832371369
aF6.099183670432865
aF6.203517743533259
aF4.518555737146055
aF1.205591749186232
aF1.99038262348761
aF5.182529997642009
aF6.205243835967969
aF6.214608098422218
aF6.214608098422218
aF6.214608098422218
aF6.214608098422218
aF6.214608098422218
aF6.214608098422218
aF6.214608098422218
aF6.214608098422218
aF6.211835509699978
aF6.211835509699978
aF6.214608098422218
aF6.214608098422218
aF6.214608098422218
aF6.214608098422218
aF6.214608098422218
aF6.214608098422218
aF6.214608098422218
aF6.214608098422218
aF6.214608098422218
aF6.214608098422218
aF6.214608098422218
aF6.214608098422218
aF6.209062920977738
aF6.196926069801249
aF6.209062920977738
aF6.211835509699978
aF6.214608098422218
aF6.214608098422218
aF6.214608098422218
aF6.214608098422218
aF6.214608098422218
aF6.211835509699978
aF6.211835509699978
aF6.211835509699978
aF6.209062920977738
aF6.211835509699978
aF6.214608098422218
aF6.214608098422218
aF6.214608098422218
aF6.214608098422218
aF6.214608098422218
aF6.214608098422218
aF6.214608098422218
aF6.214608098422218
aF6.211835509699978
aF6.206290332255498
aF6.211835509699978
aF6.214608098422218
aF6.214608098422218
aF6.214608098422218
aF6.214608098422218
aF6.211835509699978
aF6.214608098422218
aF6.214608098422218
aF6.214608098422218
aF6.214608098422218
aF6.214608098422218
aF6.214608098422218
aF6.214608098422218
aF6.214608098422218
aF6.214608098422218
aF6.214608098422218
aF6.214608098422218
aF6.214608098422218
aF6.214608098422218
aF6.214608098422218
aF6.214608098422218
aF6.214608098422218
aF6.214608098422218
aF6.214608098422218
aF6.214608098422218
aF6.214608098422218
aF6.214608098422218
aF6.214608098422218
aF6.214608098422218
aF6.214608098422218
aF6.214608098422218
aF6.214608098422218
aF6.214608098422218
aF6.214608098422218
aF6.214608098422218
aF6.214608098422218
aF6.214608098422218
aF6.214608098422218
aF6.214608098422218
aF6.214608098422218
aF6.214608098422218
aF6.214608098422218
aF6.214608098422218
aF6.214608098422218
aF6.214608098422218
aF6.214608098422218
aF6.214608098422218
aF6.214608098422218
aF6.214608098422218
aF6.214608098422218
aF6.214608098422218
aF6.214608098422218
aF6.214608098422218
aF6.214608098422218
aF6.214608098422218
aF6.214608098422218
aF6.214608098422218
aF6.214608098422218
aF6.214608098422218
aF6.214608098422218
aF6.214608098422218
aF6.214608098422218
aF6.214608098422218
aF6.214608098422218
aF6.214608098422218
aF6.214608098422218
aF6.214608098422218
aF6.214608098422218
aF6.214608098422218
aF6.214608098422218
aF6.214608098422218
aF6.214608098422218
aF6.211835509699978
aF6.209062920977738
aF6.214608098422218
aF6.214608098422218
aF6.214608098422218
aF6.214608098422218
aF6.214608098422218
aF6.214608098422218
aF6.214608098422218
aF6.214608098422218
aF6.214608098422218
aF6.214608098422218
aF6.214608098422218
aF6.214608098422218
aF6.214608098422218
aF6.214608098422218
aF6.214608098422218
aF6.214608098422218
aF6.214608098422218
aF6.214608098422218
aF6.214608098422218
aF6.214608098422218
aF6.214608098422218
aF6.214608098422218
aF6.214608098422218
aF6.214608098422218
aF6.214608098422218
aF6.214608098422218
aF6.214608098422218
aF6.214608098422218
aF6.214608098422218
aF6.214608098422218
aF6.214608098422218
aF6.214608098422218
aF6.211835509699978
aF6.20247124724573
aF6.20247124724573
aF6.211835509699978
aF6.209062920977738
aF6.209062920977738
aF6.211835509699978
aF6.211835509699978
aF6.214608098422218
aF6.214608098422218
aF6.211835509699978
aF6.195879573513721
aF6.198652162235961
aF6.184789218624761
aF6.1875618073470005
aF6.211835509699978
aF6.168015243353238
aF6.152600460376078
aF6.195199977366539
aF6.145834533575318
as(I5
I8
tp577
(lp578
F3.0529345811845046
aF6.033128490174693
aF6.148781375366309
aF6.193106984791481
aF6.11004556811956
aF5.9962968323713675
aF6.099183670432865
aF6.203517743533259
aF4.518555737146056
aF1.205591749186233
aF1.99038262348761
aF5.182529997642009
aF6.20524383596797
aF6.214608098422218
aF6.214608098422218
aF6.214608098422218
aF6.214608098422218
aF6.214608098422218
aF6.214608098422218
aF6.214608098422218
aF6.214608098422218
aF6.211835509699978
aF6.211835509699978
aF6.214608098422218
aF6.214608098422218
aF6.214608098422218
aF6.214608098422218
aF6.214608098422218
aF6.214608098422218
aF6.214608098422218
aF6.214608098422218
aF6.214608098422218
aF6.214608098422218
aF6.214608098422218
aF6.214608098422218
aF6.209062920977738
aF6.19692606980125
aF6.209062920977738
aF6.211835509699978
aF6.214608098422218
aF6.214608098422218
aF6.214608098422218
aF6.214608098422218
aF6.214608098422218
aF6.211835509699978
aF6.211835509699978
aF6.211835509699978
aF6.209062920977738
aF6.211835509699978
aF6.214608098422218
aF6.214608098422218
aF6.214608098422218
aF6.214608098422218
aF6.214608098422218
aF6.214608098422218
aF6.214608098422218
aF6.214608098422218
aF6.211835509699978
aF6.206290332255498
aF6.211835509699978
aF6.214608098422218
aF6.214608098422218
aF6.214608098422218
aF6.214608098422218
aF6.211835509699978
aF6.214608098422218
aF6.214608098422218
aF6.214608098422218
aF6.214608098422218
aF6.214608098422218
aF6.214608098422218
aF6.214608098422218
aF6.214608098422218
aF6.214608098422218
aF6.214608098422218
aF6.214608098422218
aF6.214608098422218
aF6.214608098422218
aF6.214608098422218
aF6.214608098422218
aF6.214608098422218
aF6.214608098422218
aF6.214608098422218
aF6.214608098422218
aF6.214608098422218
aF6.214608098422218
aF6.214608098422218
aF6.214608098422218
aF6.214608098422218
aF6.214608098422218
aF6.214608098422218
aF6.214608098422218
aF6.214608098422218
aF6.214608098422218
aF6.214608098422218
aF6.214608098422218
aF6.214608098422218
aF6.214608098422218
aF6.214608098422218
aF6.214608098422218
aF6.214608098422218
aF6.214608098422218
aF6.214608098422218
aF6.214608098422218
aF6.214608098422218
aF6.214608098422218
aF6.214608098422218
aF6.214608098422218
aF6.214608098422218
aF6.214608098422218
aF6.214608098422218
aF6.214608098422218
aF6.214608098422218
aF6.214608098422218
aF6.214608098422218
aF6.214608098422218
aF6.214608098422218
aF6.214608098422218
aF6.214608098422218
aF6.214608098422218
aF6.214608098422218
aF6.214608098422218
aF6.214608098422218
aF6.214608098422218
aF6.214608098422218
aF6.214608098422218
aF6.214608098422218
aF6.214608098422218
aF6.214608098422218
aF6.214608098422218
aF6.214608098422218
aF6.211835509699978
aF6.209062920977738
aF6.214608098422218
aF6.214608098422218
aF6.214608098422218
aF6.214608098422218
aF6.214608098422218
aF6.214608098422218
aF6.214608098422218
aF6.214608098422218
aF6.214608098422218
aF6.214608098422218
aF6.214608098422218
aF6.214608098422218
aF6.214608098422218
aF6.214608098422218
aF6.214608098422218
aF6.214608098422218
aF6.214608098422218
aF6.214608098422218
aF6.214608098422218
aF6.214608098422218
aF6.214608098422218
aF6.214608098422218
aF6.214608098422218
aF6.214608098422218
aF6.214608098422218
aF6.214608098422218
aF6.214608098422218
aF6.214608098422218
aF6.214608098422218
aF6.214608098422218
aF6.214608098422218
aF6.214608098422218
aF6.211835509699978
aF6.202471247245729
aF6.202471247245729
aF6.211835509699978
aF6.209062920977738
aF6.209062920977738
aF6.211835509699978
aF6.211835509699978
aF6.214608098422218
aF6.214608098422218
aF6.211835509699978
aF6.19587957351372
aF6.19865216223596
aF6.18478921862476
aF6.1875618073470005
aF6.211835509699978
aF6.1680152433532385
aF6.152600460376078
aF6.1951999773665385
aF6.145834533575319
as(I7
I4
tp579
(lp580
F0.7024192341968041
aF1.7132955379798382
aF1.3330928943750446
aF1.2862867471056576
aF0.8957181097643453
aF1.5541669300843615
aF1.0819834261090842
aF0.5857145723237982
aF3.6004401376737962
aF5.988245225334891
aF5.58347962347244
aF3.4496717289271968
aF2.273741770877748
aF2.443203962185958
aF2.599321182643274
aF2.8533810611262775
aF2.778500046580458
aF2.376838264994807
aF2.180739913833969
aF2.2813836645083176
aF2.289362015801938
aF2.2843643223289236
aF2.1230346512609137
aF2.41309059655312
aF2.2850534096047697
aF2.3991192553786127
aF2.442903188470982
aF2.2321909919790173
aF2.333574501817405
aF2.471375905937827
aF2.2721232743157502
aF2.45527711504427
aF2.5652385069285826
aF2.423117362693406
aF2.26863600508678
aF2.3687010070434233
aF2.718448516321331
aF2.608854648757811
aF2.196099719152675
aF1.984112737795601
aF1.6402901891854202
aF1.7953749595559956
aF2.225009508335283
aF2.0475210986891037
aF2.0443285218233935
aF1.8677890469608371
aF2.0871654904668033
aF2.000271853651903
aF2.041766677599959
aF1.84417308030674
aF2.0421927483550086
aF1.9066477696744022
aF2.067978980072171
aF2.117779686723822
aF2.2802449836776697
aF2.3983136308556254
aF1.9990384542501933
aF2.0465700527860777
aF2.7287817142687123
aF3.1205702395708883
aF2.650759957771507
aF1.8293531476772242
aF1.7940877094617134
aF2.0081667949333064
aF2.1500248128678976
aF1.8848112578683585
aF1.9833491257734603
aF1.938562513811267
aF2.0422010903106362
aF2.0723780237474685
aF1.8953814030855742
aF1.7807028302402026
aF2.100065277114937
aF1.9945769460338298
aF1.6758403627122078
aF1.9685330958531404
aF2.0393574653725635
aF2.2715592281831496
aF2.1246717852271866
aF2.1331787183724593
aF2.3047288398044885
aF2.3294849580187105
aF2.2710559181471024
aF2.2980641040982728
aF2.201703052854029
aF2.0517574403110914
aF2.1585294931829617
aF2.344566170763994
aF2.0542009622187454
aF2.096823852863227
aF2.2115217756601164
aF2.137332347972587
aF2.385092237311669
aF2.3386694945514557
aF2.1758627308544827
aF2.3086091117264766
aF2.2882755349644057
aF2.1382233879019044
aF1.85567160504968
aF2.1165638369122135
aF2.3205535422013437
aF2.473420596039645
aF2.274988707272945
aF2.1629934533782147
aF2.2529342582005762
aF2.2265103087037517
aF2.2800268894467526
aF2.201373430626677
aF2.075455101721079
aF2.048087663749526
aF2.062650412468609
aF1.866036560078103
aF2.165976447678222
aF2.2889449128083554
aF2.2672234267099833
aF2.1978535838691062
aF2.190836964166716
aF2.1147582240015548
aF2.162558085025586
aF2.0942629904683385
aF2.1192192612344454
aF2.246228004879887
aF2.2790536728121205
aF2.077611910183177
aF1.819585894172829
aF2.042180179337351
aF2.020097097459456
aF2.1715617773332294
aF2.1285646473939557
aF1.9879284634535785
aF2.167165091705526
aF2.4126088443326177
aF2.758052146492386
aF2.404164149089001
aF2.166576065617953
aF2.2117557983051603
aF2.0860309243136514
aF2.0931267550298314
aF1.9607651540870281
aF1.957862116303009
aF1.5785010523537768
aF1.722694634155851
aF2.105497909830679
aF2.208883894188496
aF2.2936326022860523
aF2.2116846536430206
aF2.1945688330728608
aF2.2572107340547585
aF2.011434616870075
aF1.672638884099269
aF1.6906889554942766
aF1.504737437498305
aF1.4803250864058315
aF1.4459241580381321
aF1.5832981299748226
aF2.03355918865791
aF2.1872443008462357
aF2.1939348199193716
aF2.0942547186566713
aF1.961771955972603
aF1.8557738558149537
aF1.7743174782194753
aF1.5016910587452448
aF1.5232707697524812
aF1.6718014966440269
aF1.5890354486344245
aF1.3475882213247388
aF1.6259262496118505
aF1.2042300228617469
aF0.8900885086069964
aF0.8460185242902796
aF0.7252490234765361
aF0.7074647751426129
aF0.7097308691758552
aF0.731193143396065
aF0.8336092345980439
aF0.9668250054071346
aF0.9374897432024346
aF0.5838647094374736
aF0.9491101220107089
aF0.10144209778256166
aF0.7410496944111784
aF1.004951297194268
aF0.27897945136532065
aF1.0994562527677878
as(I6
I7
tp581
(lp582
F0.7024192341968041
aF1.7132955379798382
aF1.3330928943750446
aF1.2862867471056574
aF0.8957181097643453
aF1.5541669300843612
aF1.0819834261090842
aF0.5857145723237984
aF3.6004401376737976
aF5.98824522533489
aF5.583479623472443
aF3.4496717289271976
aF2.273741770877749
aF2.4432039621859585
aF2.5993211826432745
aF2.8533810611262775
aF2.778500046580458
aF2.3768382649948068
aF2.1807399138339694
aF2.281383664508318
aF2.289362015801938
aF2.2843643223289245
aF2.1230346512609137
aF2.41309059655312
aF2.2850534096047697
aF2.3991192553786123
aF2.442903188470982
aF2.232190991979018
aF2.333574501817405
aF2.4713759059378266
aF2.2721232743157502
aF2.45527711504427
aF2.565238506928583
aF2.4231173626934055
aF2.2686360050867806
aF2.368701007043423
aF2.718448516321332
aF2.6088546487578115
aF2.1960997191526745
aF1.99611390393317
aF1.6644896063658325
aF1.8184576860840527
aF2.235077963506086
aF2.0475210986891033
aF2.055645936242072
aF1.8803806733397026
aF2.087165490466803
aF2.0002718536519026
aF2.0417666775999583
aF1.84417308030674
aF2.042192748355008
aF1.9066477696744026
aF2.0778228940672387
aF2.129641423030766
aF2.28024498367767
aF2.398313630855626
aF2.0116400806707273
aF2.057829770451392
aF2.7287817142687123
aF3.129652088201249
aF2.6804093543552687
aF1.8509799998791725
aF1.7940877094617145
aF2.008166794933307
aF2.1500248128678976
aF1.88481125786836
aF1.9833491257734606
aF1.9385625138112677
aF2.0422010903106367
aF2.072378023747469
aF1.8953814030855742
aF1.7807028302402026
aF2.109417825045939
aF2.004971331084731
aF1.6758403627122078
aF1.968533095853141
aF2.039357465372564
aF2.27155922818315
aF2.124671785227186
aF2.1331787183724593
aF2.3047288398044885
aF2.32948495801871
aF2.2710559181471015
aF2.2980641040982728
aF2.201703052854029
aF2.0618954694685816
aF2.1690407018359186
aF2.344566170763994
aF2.054200962218745
aF2.1084236757437305
aF2.2397786181637453
aF2.1662385011655907
aF2.395124976298434
aF2.350588174447031
aF2.19778356067053
aF2.3186054850731064
aF2.288275534964406
aF2.138223387901904
aF1.8556716050496802
aF2.1165638369122135
aF2.3205535422013437
aF2.4734205960396447
aF2.2749887072729456
aF2.175247321942719
aF2.2645175519672964
aF2.226510308703753
aF2.2922448287939337
aF2.213220674053159
aF2.0754551017210794
aF2.0480876637495258
aF2.0626504124686087
aF1.8660365600781026
aF2.1659764476782217
aF2.288944912808355
aF2.267223426709983
aF2.1978535838691067
aF2.1908369641667162
aF2.1147582240015557
aF2.1625580850255863
aF2.0942629904683385
aF2.1192192612344454
aF2.246228004879888
aF2.2790536728121213
aF2.077611910183177
aF1.8195858941728296
aF2.0421801793373513
aF2.0200970974594568
aF2.171561777333229
aF2.1285646473939566
aF2.0107845484111055
aF2.18869317220225
aF2.4126088443326177
aF2.758052146492385
aF2.404164149089001
aF2.166576065617953
aF2.2117557983051603
aF2.0971906203034276
aF2.1157751919507164
aF1.9913809459745038
aF1.9962258614810957
aF1.6169985109137865
aF1.7433921437870012
aF2.1054979098306785
aF2.2088838941884954
aF2.293632602286052
aF2.2116846536430206
aF2.194568833072861
aF2.257210734054757
aF2.0114346168700745
aF1.6726388840992683
aF1.6906889554942768
aF1.504737437498305
aF1.4907787361363027
aF1.4681606447535764
aF1.6056379825354887
aF2.0446563789952523
aF2.1872443008462357
aF2.1939348199193716
aF2.0942547186566713
aF1.9617719559726032
aF1.8687392945532937
aF1.7862220734915908
aF1.5016910587452448
aF1.523270769752481
aF1.6718014966440267
aF1.5890354486344247
aF1.3475882213247385
aF1.6259262496118503
aF1.2042300228617469
aF0.8900885086069963
aF0.8591742056017224
aF0.7388258825922462
aF0.7074647751426127
aF0.7221333779535796
aF0.754647856982345
aF0.8464100780784891
aF0.9668250054071345
aF0.9374897432024346
aF0.5838647094374736
aF0.949110122010709
aF0.10144209778256166
aF0.7410496944111784
aF1.004951297194268
aF0.2789794513653207
aF1.0994562527677878
as(I7
I6
tp583
(lp584
F0.7024192341968042
aF1.7132955379798382
aF1.3330928943750446
aF1.2862867471056576
aF0.8957181097643453
aF1.5541669300843612
aF1.0819834261090842
aF0.5857145723237983
aF3.600440137673796
aF5.988245225334891
aF5.583479623472441
aF3.4496717289271954
aF2.2737417708777485
aF2.4432039621859576
aF2.599321182643274
aF2.853381061126278
aF2.7785000465804575
aF2.3768382649948068
aF2.1807399138339694
aF2.281383664508319
aF2.2893620158019385
aF2.284364322328924
aF2.1230346512609133
aF2.4130905965531215
aF2.2850534096047697
aF2.399119255378613
aF2.442903188470982
aF2.232190991979017
aF2.3335745018174046
aF2.4713759059378266
aF2.2721232743157507
aF2.4552771150442694
aF2.565238506928583
aF2.4231173626934055
aF2.2686360050867806
aF2.3687010070434233
aF2.718448516321332
aF2.608854648757811
aF2.1960997191526745
aF1.99611390393317
aF1.664489606365833
aF1.8184576860840533
aF2.235077963506086
aF2.0475210986891033
aF2.055645936242072
aF1.8803806733397037
aF2.0871654904668033
aF2.0002718536519026
aF2.0417666775999583
aF1.8441730803067398
aF2.042192748355008
aF1.9066477696744024
aF2.0778228940672387
aF2.1296414230307663
aF2.2802449836776693
aF2.3983136308556254
aF2.0116400806707273
aF2.057829770451393
aF2.728781714268713
aF3.1296520882012473
aF2.6804093543552687
aF1.8509799998791716
aF1.7940877094617134
aF2.008166794933306
aF2.1500248128678976
aF1.8848112578683591
aF1.9833491257734608
aF1.9385625138112679
aF2.0422010903106362
aF2.0723780237474685
aF1.895381403085575
aF1.7807028302402026
aF2.109417825045939
aF2.004971331084731
aF1.6758403627122076
aF1.9685330958531402
aF2.0393574653725635
aF2.27155922818315
aF2.1246717852271866
aF2.1331787183724593
aF2.3047288398044876
aF2.3294849580187096
aF2.2710559181471024
aF2.298064104098273
aF2.201703052854029
aF2.0618954694685816
aF2.169040701835918
aF2.344566170763994
aF2.0542009622187454
aF2.10842367574373
aF2.2397786181637453
aF2.1662385011655907
aF2.395124976298434
aF2.350588174447031
aF2.1977835606705307
aF2.3186054850731055
aF2.288275534964406
aF2.138223387901904
aF1.8556716050496804
aF2.116563836912214
aF2.3205535422013432
aF2.473420596039645
aF2.2749887072729456
aF2.1752473219427197
aF2.264517551967297
aF2.226510308703753
aF2.292244828793934
aF2.2132206740531597
aF2.075455101721079
aF2.048087663749526
aF2.062650412468609
aF1.8660365600781028
aF2.1659764476782213
aF2.288944912808356
aF2.2672234267099824
aF2.1978535838691062
aF2.1908369641667162
aF2.1147582240015543
aF2.1625580850255854
aF2.094262990468338
aF2.119219261234445
aF2.246228004879887
aF2.279053672812121
aF2.0776119101831774
aF1.8195858941728296
aF2.0421801793373517
aF2.0200970974594568
aF2.1715617773332294
aF2.128564647393956
aF2.010784548411105
aF2.18869317220225
aF2.4126088443326172
aF2.758052146492386
aF2.4041641490890004
aF2.166576065617952
aF2.21175579830516
aF2.097190620303427
aF2.1157751919507155
aF1.9913809459745033
aF1.9962258614810955
aF1.6169985109137868
aF1.7433921437870006
aF2.1054979098306785
aF2.2088838941884954
aF2.2936326022860514
aF2.2116846536430206
aF2.1945688330728608
aF2.2572107340547576
aF2.0114346168700745
aF1.6726388840992685
aF1.6906889554942766
aF1.504737437498305
aF1.4907787361363027
aF1.4681606447535758
aF1.605637982535489
aF2.0446563789952528
aF2.1872443008462357
aF2.1939348199193716
aF2.0942547186566713
aF1.9617719559726035
aF1.868739294553293
aF1.78622207349159
aF1.501691058745245
aF1.5232707697524812
aF1.671801496644027
aF1.5890354486344247
aF1.3475882213247388
aF1.6259262496118505
aF1.2042300228617466
aF0.8900885086069964
aF0.8591742056017224
aF0.7388258825922465
aF0.7074647751426129
aF0.7221333779535797
aF0.7546478569823453
aF0.8464100780784892
aF0.9668250054071346
aF0.9374897432024346
aF0.5838647094374735
aF0.9491101220107089
aF0.10144209778256166
aF0.7410496944111784
aF1.004951297194268
aF0.27897945136532065
aF1.0994562527677878
as(I6
I3
tp585
(lp586
F0.6321821388837977
aF0.5859940914585237
aF0.3776841048294376
aF0.25287196009490426
aF0.4456270339863192
aF0.8074725206105491
aF0.8198333663821915
aF0.31498266011129517
aF1.2917169071498416
aF1.173167483052474
aF1.4593924176638602
aF1.3435324302722484
aF0.9587681014535503
aF0.81874080351513
aF0.8045246315108208
aF0.8153694597716116
aF0.6886691675091499
aF0.5667158238353938
aF0.3149004020850027
aF0.26407832852401025
aF0.23046903126331544
aF0.32394506138890045
aF0.4340012498886782
aF0.49614996120776844
aF0.39027324656812656
aF0.32226389673378397
aF0.4235649203751732
aF0.4345434084891923
aF0.4943544603283759
aF0.46728924502686503
aF0.44041441183482394
aF0.5858391831378789
aF0.6807224970334069
aF0.5797860293033255
aF0.6559739454397506
aF0.7739517246402305
aF0.9290488748148136
aF0.9967524661503782
aF0.7385619054768888
aF0.666406466035272
aF0.6865992177336082
aF0.6925773630035472
aF0.8736168281798257
aF0.8010622826577778
aF0.6768997105325208
aF0.6576570332471859
aF0.6129953015788367
aF0.7642612835515111
aF0.824029824648841
aF0.7727740853661356
aF0.6795468353091256
aF0.494322530755288
aF0.5093713087539052
aF0.548030065944597
aF0.7013933596062891
aF0.9434643711537742
aF0.6587179692174514
aF0.6050673177450595
aF0.9909369360052166
aF1.05295291418217
aF0.9307586036547711
aF0.5237701931023883
aF0.39060043793986465
aF0.6042802668998357
aF0.6528573052411225
aF0.5174456340523624
aF0.47140953597227475
aF0.42659482564902973
aF0.41666102552976697
aF0.4142323148244799
aF0.21615277482818768
aF0.17505587772210698
aF0.36628961884422306
aF0.3781021894161536
aF0.32002765011443535
aF0.258845756700977
aF0.23046903126331544
aF0.30327218833404523
aF0.281170553841369
aF0.28483503858866543
aF0.4566458143898671
aF0.4247755825088781
aF0.2817057628739213
aF0.2873511134372619
aF0.3931675151894809
aF0.3339488335901919
aF0.20035059143797004
aF0.1911144467157817
aF0.18094746666983091
aF0.2791303985771982
aF0.27744236901334446
aF0.318544580512529
aF0.418189169226237
aF0.34334775311690724
aF0.27803551506998586
aF0.24703540176703032
aF0.2675425584469431
aF0.26872770147606895
aF0.1643867949084726
aF0.22119880538597275
aF0.22119880538597275
aF0.3479628272427528
aF0.45516379283444003
aF0.4166015197296102
aF0.47791227066175
aF0.5339932121100471
aF0.5789988924099305
aF0.46860830373562956
aF0.27294760409915286
aF0.39852132692954073
aF0.49982218841950266
aF0.3806852128081283
aF0.36351069296148936
aF0.4062136145638682
aF0.43939821321748596
aF0.4519806038877085
aF0.4556313242930435
aF0.44647019073307664
aF0.47380264514708903
aF0.4308619131624553
aF0.41173593843231227
aF0.5868114649243128
aF0.6607467395222562
aF0.5942951296290719
aF0.558697171380395
aF0.6769836836735409
aF0.6543862959431238
aF0.7145838110644593
aF0.7522637879521438
aF0.6894823552551652
aF0.6490871252212453
aF0.801074143045118
aF0.8723754641818287
aF0.5733850556871798
aF0.5413685647622937
aF0.5181571597726319
aF0.44627638756895205
aF0.5566853705704881
aF0.49635893053528884
aF0.40731197399394903
aF0.36944205498701915
aF0.41179894062765354
aF0.4282939691995066
aF0.5187285753743499
aF0.4364936281405333
aF0.25532371319270253
aF0.33131462370156356
aF0.36091414188715926
aF0.39755073441700384
aF0.3677021371980168
aF0.3870754090762944
aF0.3602299844526746
aF0.2873331191896302
aF0.3213860716599814
aF0.23331395638555266
aF0.37355503200719403
aF0.4357192796663153
aF0.3540985083858519
aF0.38953780362727014
aF0.5594765542454794
aF0.6401907257491894
aF0.4795418846697119
aF0.20719435125352886
aF0.20722181177113377
aF0.33046378988906727
aF0.31345293966817667
aF0.2636245278278838
aF0.20755352803766228
aF0.1170445240643967
aF0.1830170267291647
aF0.17493394440636292
aF0.10316819021727235
aF0.06655073603470879
aF0.06932332475694856
aF0.06932332475694856
aF0.1565180961543803
aF0.2694236990616103
aF0.24426726236784133
aF0.2846718135359379
aF0.25655283101491666
aF0.09866950906032189
aF0.33517353246579684
aF0.3526482373914296
aF0.24855548569969138
aF0.4007862889855407
as(I3
I6
tp587
(lp588
F0.6321821388837977
aF0.5859940914585237
aF0.37768410482943754
aF0.25287196009490426
aF0.4456270339863192
aF0.8074725206105491
aF0.8198333663821915
aF0.3149826601112952
aF1.2917169071498416
aF1.173167483052474
aF1.4593924176638602
aF1.3435324302722487
aF0.9587681014535503
aF0.81874080351513
aF0.8045246315108207
aF0.8153694597716117
aF0.6886691675091497
aF0.5667158238353937
aF0.3149004020850027
aF0.26407832852401025
aF0.23046903126331544
aF0.3239450613889004
aF0.43400124988867816
aF0.49614996120776844
aF0.3902732465681266
aF0.32226389673378397
aF0.4235649203751731
aF0.4345434084891923
aF0.49435446032837593
aF0.46728924502686503
aF0.44041441183482394
aF0.5858391831378787
aF0.6807224970334068
aF0.5797860293033255
aF0.6559739454397505
aF0.7739517246402307
aF0.9290488748148135
aF0.9967524661503782
aF0.7385619054768887
aF0.666406466035272
aF0.6865992177336081
aF0.6925773630035471
aF0.8736168281798256
aF0.8010622826577779
aF0.6768997105325208
aF0.6576570332471858
aF0.6129953015788367
aF0.7642612835515111
aF0.8240298246488409
aF0.7727740853661356
aF0.6795468353091254
aF0.49432253075528804
aF0.5093713087539052
aF0.548030065944597
aF0.7013933596062891
aF0.9434643711537742
aF0.6587179692174513
aF0.6050673177450595
aF0.9909369360052166
aF1.05295291418217
aF0.9307586036547711
aF0.5237701931023883
aF0.3906004379398647
aF0.6042802668998358
aF0.6528573052411224
aF0.5174456340523624
aF0.4714095359722747
aF0.4265948256490298
aF0.41666102552976697
aF0.41423231482448
aF0.2161527748281877
aF0.175055877722107
aF0.36628961884422306
aF0.3781021894161536
aF0.32002765011443535
aF0.2588457567009769
aF0.23046903126331544
aF0.3032721883340453
aF0.281170553841369
aF0.2848350385886654
aF0.4566458143898672
aF0.4247755825088781
aF0.2817057628739213
aF0.2873511134372619
aF0.3931675151894809
aF0.33394883359019195
aF0.20035059143797004
aF0.1911144467157817
aF0.18094746666983091
aF0.2791303985771982
aF0.27744236901334446
aF0.31854458051252904
aF0.418189169226237
aF0.34334775311690724
aF0.27803551506998586
aF0.24703540176703032
aF0.2675425584469431
aF0.26872770147606895
aF0.1643867949084726
aF0.22119880538597278
aF0.22119880538597278
aF0.3479628272427528
aF0.45516379283444003
aF0.4166015197296102
aF0.47791227066175007
aF0.5339932121100472
aF0.5789988924099305
aF0.46860830373562956
aF0.27294760409915286
aF0.39852132692954073
aF0.49982218841950266
aF0.3806852128081282
aF0.36351069296148936
aF0.4062136145638682
aF0.43939821321748596
aF0.45198060388770855
aF0.4556313242930434
aF0.44647019073307664
aF0.47380264514708903
aF0.4308619131624553
aF0.41173593843231227
aF0.5868114649243127
aF0.6607467395222562
aF0.5942951296290718
aF0.558697171380395
aF0.6769836836735409
aF0.6543862959431238
aF0.7145838110644593
aF0.7522637879521439
aF0.6894823552551653
aF0.6490871252212452
aF0.801074143045118
aF0.8723754641818287
aF0.5733850556871797
aF0.5413685647622937
aF0.518157159772632
aF0.44627638756895205
aF0.556685370570488
aF0.49635893053528896
aF0.4073119739939491
aF0.36944205498701915
aF0.41179894062765354
aF0.4282939691995065
aF0.5187285753743498
aF0.43649362814053333
aF0.25532371319270253
aF0.3313146237015636
aF0.36091414188715926
aF0.39755073441700384
aF0.3677021371980168
aF0.3870754090762944
aF0.3602299844526746
aF0.2873331191896302
aF0.3213860716599814
aF0.23331395638555266
aF0.37355503200719403
aF0.4357192796663153
aF0.35409850838585194
aF0.3895378036272702
aF0.5594765542454793
aF0.6401907257491893
aF0.4795418846697119
aF0.20719435125352886
aF0.20722181177113377
aF0.3304637898890673
aF0.3134529396681767
aF0.2636245278278838
aF0.20755352803766228
aF0.1170445240643967
aF0.1830170267291647
aF0.17493394440636292
aF0.10316819021727236
aF0.06655073603470879
aF0.06932332475694856
aF0.06932332475694856
aF0.15651809615438028
aF0.2694236990616103
aF0.24426726236784133
aF0.2846718135359379
aF0.25655283101491666
aF0.09866950906032189
aF0.33517353246579684
aF0.3526482373914296
aF0.24855548569969138
aF0.4007862889855407
as(I8
I6
tp589
(lp590
F1.6566666827890955
aF3.031701373011319
aF2.817095426914081
aF2.4388637793563857
aF2.905489883637251
aF2.930353279369097
aF1.4694848332570407
aF0.6142002617096598
aF1.9474917837404915
aF1.0020252493649344
aF1.4245153997962003
aF3.101396232127671
aF3.524521967925438
aF3.346904588723474
aF3.38019625452262
aF3.673725707538667
aF3.445632365750334
aF2.9301336895297405
aF2.779484463044256
aF2.834976131272821
aF2.9149077850538476
aF2.692163485654278
aF2.8208746999452385
aF3.3828761660471476
aF3.2867307235954333
aF3.3248319173277414
aF3.3600389464531006
aF3.008710955183985
aF3.254642461524803
aF3.3291707847451626
aF2.8001043109216064
aF3.1827799541082977
aF3.5126272548761515
aF3.565763982447482
aF3.167194632489426
aF3.2568522560052005
aF3.614356601019694
aF3.636106224416042
aF3.163414850358553
aF3.2734096473178
aF3.1928785854663393
aF3.070224299075617
aF3.506502445655845
aF3.613421321343133
aF3.3312597472655865
aF3.120040154183751
aF3.2430314321937797
aF3.4066736633951473
aF3.5119937499143457
aF3.0133853983535923
aF2.9937506679290706
aF3.17845171741952
aF3.1959788776117795
aF3.044003175728516
aF3.320752815972989
aF3.5658456009698867
aF3.281604813707024
aF3.381466383716854
aF3.6902270727866644
aF3.7234777717943
aF3.4307536835506958
aF2.473968643091263
aF2.321496498579216
aF2.9905572007488814
aF3.208356415234903
aF2.7450022284558773
aF2.5915758572450476
aF2.3624139296425146
aF2.987560336786161
aF2.906876481105794
aF2.3884537491824593
aF2.0209432152524465
aF2.6473072967226625
aF2.453232103434346
aF2.535128594994303
aF2.692573237416389
aF2.4862864193151215
aF2.8261481377278317
aF3.1493567249728898
aF3.177096815300839
aF3.331188609191889
aF3.4032544627909895
aF3.0089610667760667
aF2.9382377418121943
aF3.0270927117183777
aF3.0624379944498363
aF3.0155285473178224
aF3.4631068141887926
aF3.2598872265425816
aF3.246770831570083
aF3.1692880140548154
aF3.1972518878674387
aF3.4618739081029903
aF3.188685807845247
aF3.121527954046502
aF3.406459911532047
aF3.3571995695926584
aF3.2108262130006
aF2.814941173426063
aF2.833471399213189
aF3.2457180084382853
aF3.374794666880675
aF3.510873018903187
aF3.3531103947359426
aF3.363482831271107
aF3.577010248739709
aF3.423104891861893
aF3.0739894247953186
aF3.050510841815968
aF3.28321875642391
aF3.17877063607602
aF2.699865093486187
aF2.7974156328699586
aF3.0844436590942372
aF3.1876427182677607
aF3.299765170326611
aF3.2862795095795327
aF3.294383726003437
aF3.2528943246347892
aF2.961196414409116
aF3.0948316864745733
aF2.983490770034074
aF3.230723529941192
aF3.241093249283539
aF3.0307725141137
aF3.364550036679626
aF3.3081807386396465
aF3.3605546108905804
aF3.2632860796112735
aF3.336658113356574
aF3.4080979234427753
aF3.422783650283552
aF3.868972171781153
aF3.403515815950953
aF3.3116092207834575
aF3.520920206049894
aF3.5199346705871224
aF3.4282439130277083
aF3.146112523795053
aF2.5681946830648323
aF2.460197911065846
aF2.8701066705903715
aF3.0124660281072115
aF3.3538550659558855
aF3.2927230256944124
aF2.776732535805632
aF2.6899724347812004
aF3.249447414151043
aF3.062702939225232
aF2.5761022469157666
aF2.859187624274141
aF2.563430990136698
aF2.7400572520381075
aF2.7710119210490127
aF2.7337516781179594
aF3.3407113341099355
aF3.423749098147678
aF3.230839793780106
aF3.2401829983384056
aF2.615015865577547
aF2.8009846913
aF2.9046801873493107
aF2.4629202494808484
aF2.2057933102037777
aF3.010661981177701
aF3.1446329295045663
aF3.274635214366871
aF2.7637830549051654
aF2.030383558802951
aF2.403771268942093
aF2.538299265378741
aF2.7910419845249907
aF2.897681469251008
aF2.947322467730452
aF2.6252022446225327
aF2.997643404252484
aF2.8505046625641524
aF2.638350352920007
aF2.581463009438031
aF1.911155899908039
aF1.7058269690697716
aF2.8326455857798485
aF2.7822216887988493
aF2.936705772012921
aF2.848602095316992
as(I5
I3
tp591
(lp592
F2.9752275866827813
aF5.877245177248084
aF6.0623176708762845
aF6.122781580578623
aF5.9810486945830394
aF5.801089371424139
aF5.965946607612715
aF6.0907796939419265
aF4.42726270546838
aF1.6897835914827026
aF2.5091242485348184
aF5.040915928617496
aF6.142374237683738
aF6.175058056030166
aF6.190334396069241
aF6.1785644450331
aF6.1931069847914815
aF6.214608098422218
aF6.214608098422218
aF6.214608098422218
aF6.211835509699978
aF6.206290332255499
aF6.20247124724573
aF6.198513719297877
aF6.186882211199819
aF6.174745360023329
aF6.173019267588619
aF6.200745154811019
aF6.178564445033101
aF6.198513719297877
aF6.214608098422218
aF6.195741130575637
aF6.178564445033101
aF6.198513719297877
aF6.178564445033101
aF6.153536636253934
aF6.118457152490423
aF6.138555152673969
aF6.1818201788909635
aF6.107156734402041
aF6.0959279365749985
aF6.143200387791161
aF6.178564445033101
aF6.178564445033101
aF6.1818201788909635
aF6.175791856310861
aF6.178564445033101
aF6.153536636253934
aF6.149425161382825
aF6.175791856310861
aF6.192968541853397
aF6.1931069847914815
aF6.1845927676132035
aF6.200745154811019
aF6.176275001446484
aF6.034315321197615
aF6.151379711019797
aF6.20524383596797
aF6.147991458809454
aF6.146652572660586
aF6.187365356335444
aF6.195741130575637
aF6.20524383596797
aF6.1931069847914815
aF6.175791856310861
aF6.195741130575637
aF6.203517743533259
aF6.198513719297877
aF6.203517743533259
aF6.187423364408917
aF6.200745154811019
aF6.211835509699978
aF6.20801642469021
aF6.203517743533259
aF6.203517743533259
aF6.214608098422218
aF6.214608098422218
aF6.20524383596797
aF6.203517743533259
aF6.203517743533259
aF6.203517743533259
aF6.186882211199818
aF6.181337033755337
aF6.175791856310858
aF6.200745154811019
aF6.195741130575637
aF6.211835509699978
aF6.214608098422218
aF6.211835509699978
aF6.203517743533259
aF6.211835509699978
aF6.209062920977738
aF6.195741130575637
aF6.20801642469021
aF6.211835509699978
aF6.20801642469021
aF6.20801642469021
aF6.211835509699978
aF6.214608098422218
aF6.214608098422218
aF6.214608098422218
aF6.200745154811019
aF6.200745154811019
aF6.211835509699978
aF6.203517743533259
aF6.190195953131157
aF6.20801642469021
aF6.209062920977738
aF6.211835509699978
aF6.20524383596797
aF6.195741130575637
aF6.20801642469021
aF6.211835509699978
aF6.20801642469021
aF6.195741130575637
aF6.20524383596797
aF6.198513719297877
aF6.1647015014219
aF6.151379711019796
aF6.150838557810698
aF6.211835509699978
aF6.211835509699978
aF6.187365356335444
aF6.1845927676132035
aF6.209062920977738
aF6.20524383596797
aF6.184592767613204
aF6.165783807840097
aF6.175791856310861
aF6.203517743533259
aF6.190334396069241
aF6.175791856310861
aF6.143003936779604
aF6.167474090144139
aF6.123595815723925
aF6.181337033755341
aF6.1845927676132035
aF6.156309224976174
aF6.187365356335444
aF6.214608098422218
aF6.214608098422218
aF6.214608098422218
aF6.198513719297877
aF6.175058056030166
aF6.193106984791481
aF6.211835509699978
aF6.189654799922058
aF6.164701501421899
aF6.203517743533259
aF6.198513719297877
aF6.181337033755341
aF6.198513719297877
aF6.214608098422218
aF6.211835509699978
aF6.211835509699978
aF6.20801642469021
aF6.1985137192978765
aF6.195741130575637
aF6.190334396069241
aF6.166740289863446
aF6.157466041673377
aF6.178564445033101
aF6.20801642469021
aF6.200745154811019
aF6.181337033755341
aF6.192968541853397
aF6.180831690676909
aF6.185330371833859
aF6.187561807347001
aF6.152490139966405
aF6.183742722337232
aF6.209062920977738
aF6.209062920977738
aF6.211835509699978
aF6.214608098422218
aF6.192968541853397
aF6.127785604814005
aF6.147873322016865
aF6.11163321761619
aF6.125219275351221
aF6.209062920977738
aF6.094456532073653
aF6.068596648601459
aF6.1327896290493875
aF6.026224349284181
as(I6
I4
tp593
(lp594
F0.6321821388837978
aF0.5859940914585238
aF0.3776841048294376
aF0.25287196009490426
aF0.4456270339863192
aF0.807472520610549
aF0.8198333663821915
aF0.31498266011129517
aF2.0158035445272593
aF2.5401107054495236
aF2.503778258395787
aF1.7918289765177806
aF0.9587681014535504
aF0.81874080351513
aF0.8045246315108207
aF0.8153694597716117
aF0.6886691675091499
aF0.5667158238353937
aF0.3149004020850027
aF0.26407832852401025
aF0.23046903126331544
aF0.32394506138890045
aF0.43400124988867816
aF0.49614996120776844
aF0.39027324656812656
aF0.3222638967337839
aF0.4235649203751732
aF0.4345434084891922
aF0.49435446032837593
aF0.4672892450268651
aF0.44041441183482394
aF0.585839183137879
aF0.6807224970334068
aF0.5797860293033255
aF0.6559739454397505
aF0.7739517246402305
aF0.9290488748148136
aF0.9967524661503782
aF0.7385619054768888
aF0.666406466035272
aF0.6865992177336082
aF0.6925773630035471
aF0.8736168281798256
aF0.8010622826577778
aF0.6768997105325207
aF0.6576570332471858
aF0.6129953015788366
aF0.7642612835515112
aF0.8240298246488409
aF0.7727740853661356
aF0.6795468353091255
aF0.494322530755288
aF0.5093713087539052
aF0.548030065944597
aF0.7013933596062891
aF0.9434643711537741
aF0.6587179692174514
aF0.6050673177450596
aF0.9909369360052166
aF1.0529529141821703
aF0.9307586036547711
aF0.5237701931023883
aF0.3906004379398647
aF0.6042802668998357
aF0.6528573052411225
aF0.5174456340523624
aF0.47140953597227475
aF0.4265948256490298
aF0.41666102552976697
aF0.41423231482448
aF0.21615277482818768
aF0.175055877722107
aF0.36628961884422306
aF0.37810218941615353
aF0.32002765011443535
aF0.2588457567009769
aF0.23046903126331544
aF0.30327218833404523
aF0.281170553841369
aF0.2848350385886654
aF0.45664581438986707
aF0.4247755825088781
aF0.2817057628739213
aF0.2873511134372619
aF0.39316751518948084
aF0.3339488335901919
aF0.20035059143797004
aF0.19111444671578173
aF0.18094746666983091
aF0.2791303985771981
aF0.2774423690133445
aF0.3185445805125291
aF0.418189169226237
aF0.3433477531169072
aF0.2780355150699858
aF0.24703540176703032
aF0.2675425584469431
aF0.268727701476069
aF0.16438679490847258
aF0.22119880538597278
aF0.22119880538597278
aF0.34796282724275274
aF0.45516379283444003
aF0.41660151972961024
aF0.47791227066175007
aF0.5339932121100472
aF0.5789988924099305
aF0.46860830373562956
aF0.27294760409915286
aF0.3985213269295408
aF0.4998221884195026
aF0.3806852128081282
aF0.36351069296148936
aF0.4062136145638682
aF0.43939821321748596
aF0.45198060388770855
aF0.4556313242930434
aF0.4464701907330766
aF0.47380264514708903
aF0.43086191316245537
aF0.41173593843231227
aF0.5868114649243128
aF0.6607467395222562
aF0.5942951296290719
aF0.558697171380395
aF0.676983683673541
aF0.6543862959431238
aF0.7145838110644593
aF0.7522637879521439
aF0.6894823552551653
aF0.6490871252212452
aF0.801074143045118
aF0.8723754641818287
aF0.5733850556871797
aF0.5413685647622937
aF0.518157159772632
aF0.4462763875689521
aF0.556685370570488
aF0.49635893053528884
aF0.4073119739939491
aF0.36944205498701915
aF0.41179894062765354
aF0.4282939691995066
aF0.5187285753743499
aF0.43649362814053333
aF0.2553237131927025
aF0.33131462370156356
aF0.3609141418871593
aF0.39755073441700384
aF0.3677021371980168
aF0.38707540907629434
aF0.3602299844526746
aF0.2873331191896302
aF0.32138607165998145
aF0.23331395638555266
aF0.37355503200719403
aF0.43571927966631524
aF0.35409850838585194
aF0.38953780362727014
aF0.5594765542454793
aF0.6401907257491894
aF0.4795418846697119
aF0.20719435125352886
aF0.20722181177113377
aF0.3304637898890673
aF0.3134529396681767
aF0.26362452782788376
aF0.20755352803766225
aF0.1170445240643967
aF0.1830170267291647
aF0.17493394440636292
aF0.10316819021727235
aF0.06655073603470879
aF0.06932332475694856
aF0.06932332475694856
aF0.1565180961543803
aF0.2694236990616103
aF0.2442672623678413
aF0.2846718135359379
aF0.2565528310149166
aF0.09866950906032189
aF0.3351735324657969
aF0.3526482373914295
aF0.24855548569969138
aF0.40078628898554075
as(I5
I4
tp595
(lp596
F2.9752275866827813
aF5.877245177248081
aF6.062317670876283
aF6.122781580578622
aF5.981048694583039
aF5.801089371424137
aF5.965946607612713
aF6.130696636474326
aF5.173530052623717
aF3.0650445800464743
aF3.553510089266747
aF5.575162725252468
aF6.142374237683737
aF6.175058056030165
aF6.1903343960692405
aF6.1785644450331
aF6.193106984791481
aF6.214608098422218
aF6.214608098422218
aF6.214608098422218
aF6.211835509699978
aF6.206290332255498
aF6.202471247245729
aF6.1985137192978765
aF6.203517743533259
aF6.208016424690209
aF6.211835509699978
aF6.200745154811019
aF6.1785644450331
aF6.1985137192978765
aF6.214608098422218
aF6.1957411305756365
aF6.1785644450331
aF6.1985137192978765
aF6.1785644450331
aF6.153536636253934
aF6.1212297412126615
aF6.138555152673968
aF6.1818201788909635
aF6.18201662990252
aF6.190195953131156
aF6.1903343960692405
aF6.1785644450331
aF6.1785644450331
aF6.181820178890963
aF6.17579185631086
aF6.1785644450331
aF6.153536636253933
aF6.149425161382825
aF6.1785644450331
aF6.1957411305756365
aF6.193106984791481
aF6.1845927676132035
aF6.200745154811019
aF6.1845927676132035
aF6.142446281364974
aF6.192968541853396
aF6.205243835967969
aF6.150764047531693
aF6.149425161382825
aF6.187365356335444
aF6.1957411305756365
aF6.205243835967969
aF6.193106984791481
aF6.17579185631086
aF6.1957411305756365
aF6.203517743533259
aF6.1985137192978765
aF6.203517743533259
aF6.1957411305756365
aF6.200745154811019
aF6.211835509699978
aF6.208016424690209
aF6.203517743533259
aF6.203517743533259
aF6.214608098422218
aF6.214608098422218
aF6.205243835967969
aF6.203517743533259
aF6.203517743533259
aF6.203517743533259
aF6.203517743533258
aF6.214608098422218
aF6.211835509699978
aF6.200745154811019
aF6.1957411305756365
aF6.211835509699978
aF6.214608098422218
aF6.211835509699978
aF6.203517743533259
aF6.211835509699978
aF6.209062920977738
aF6.1957411305756365
aF6.208016424690209
aF6.211835509699978
aF6.208016424690209
aF6.208016424690209
aF6.211835509699978
aF6.214608098422218
aF6.214608098422218
aF6.214608098422218
aF6.200745154811019
aF6.200745154811019
aF6.211835509699978
aF6.203517743533259
aF6.1957411305756365
aF6.208016424690209
aF6.209062920977738
aF6.211835509699978
aF6.208016424690209
aF6.1985137192978765
aF6.208016424690209
aF6.211835509699978
aF6.208016424690209
aF6.1957411305756365
aF6.205243835967969
aF6.1985137192978765
aF6.18133703375534
aF6.1957411305756365
aF6.200745154811019
aF6.211835509699978
aF6.211835509699978
aF6.187365356335444
aF6.1845927676132035
aF6.209062920977738
aF6.205243835967969
aF6.184592767613203
aF6.165783807840096
aF6.17579185631086
aF6.203517743533259
aF6.1903343960692405
aF6.17579185631086
aF6.176275001446483
aF6.200745154811019
aF6.184592767613203
aF6.18133703375534
aF6.187365356335444
aF6.159081813698413
aF6.187365356335444
aF6.214608098422218
aF6.214608098422218
aF6.214608098422218
aF6.1985137192978765
aF6.175058056030165
aF6.193106984791481
aF6.211835509699978
aF6.214608098422218
aF6.211835509699978
aF6.203517743533259
aF6.1985137192978765
aF6.18133703375534
aF6.1985137192978765
aF6.214608098422218
aF6.211835509699978
aF6.211835509699978
aF6.208016424690209
aF6.1985137192978765
aF6.1957411305756365
aF6.1903343960692405
aF6.175058056030165
aF6.165783807840096
aF6.1785644450331
aF6.208016424690209
aF6.200745154811019
aF6.18133703375534
aF6.192968541853396
aF6.180831690676908
aF6.185330371833858
aF6.1875618073470005
aF6.152490139966404
aF6.183742722337231
aF6.209062920977738
aF6.209062920977738
aF6.211835509699978
aF6.214608098422218
aF6.192968541853396
aF6.1277856048140045
aF6.147873322016864
aF6.111633217616189
aF6.1252192753512205
aF6.209062920977738
aF6.094456532073652
aF6.068596648601457
aF6.132789629049387
aF6.026224349284179
as(I4
I5
tp597
(lp598
F2.9752275866827818
aF5.877245177248082
aF6.062317670876283
aF6.122781580578622
aF5.981048694583039
aF5.801089371424137
aF5.965946607612713
aF6.130696636474326
aF5.173530052623717
aF3.0650445800464716
aF3.5535100892667444
aF5.575162725252468
aF6.142374237683737
aF6.175058056030165
aF6.1903343960692405
aF6.178564445033101
aF6.193106984791481
aF6.214608098422218
aF6.214608098422218
aF6.214608098422218
aF6.211835509699978
aF6.206290332255498
aF6.202471247245729
aF6.1985137192978765
aF6.203517743533259
aF6.208016424690209
aF6.211835509699978
aF6.200745154811019
aF6.1785644450331
aF6.1985137192978765
aF6.214608098422218
aF6.1957411305756365
aF6.1785644450331
aF6.1985137192978765
aF6.178564445033101
aF6.153536636253933
aF6.1212297412126615
aF6.138555152673968
aF6.181820178890963
aF6.182016629902522
aF6.190195953131156
aF6.1903343960692405
aF6.1785644450331
aF6.1785644450331
aF6.181820178890963
aF6.17579185631086
aF6.1785644450331
aF6.153536636253933
aF6.149425161382825
aF6.1785644450331
aF6.1957411305756365
aF6.193106984791481
aF6.184592767613203
aF6.200745154811019
aF6.1845927676132035
aF6.142446281364974
aF6.192968541853396
aF6.20524383596797
aF6.150764047531693
aF6.149425161382825
aF6.187365356335443
aF6.1957411305756365
aF6.205243835967969
aF6.193106984791481
aF6.17579185631086
aF6.1957411305756365
aF6.203517743533259
aF6.1985137192978765
aF6.203517743533259
aF6.1957411305756365
aF6.200745154811019
aF6.211835509699978
aF6.208016424690209
aF6.203517743533259
aF6.203517743533259
aF6.214608098422218
aF6.214608098422218
aF6.205243835967969
aF6.203517743533259
aF6.203517743533259
aF6.203517743533259
aF6.203517743533258
aF6.214608098422218
aF6.211835509699978
aF6.200745154811019
aF6.1957411305756365
aF6.211835509699978
aF6.214608098422218
aF6.211835509699978
aF6.203517743533259
aF6.211835509699978
aF6.209062920977738
aF6.1957411305756365
aF6.208016424690209
aF6.211835509699978
aF6.208016424690209
aF6.208016424690209
aF6.211835509699978
aF6.214608098422218
aF6.214608098422218
aF6.214608098422218
aF6.200745154811019
aF6.200745154811019
aF6.211835509699978
aF6.203517743533259
aF6.1957411305756365
aF6.208016424690209
aF6.209062920977738
aF6.211835509699978
aF6.208016424690209
aF6.1985137192978765
aF6.208016424690209
aF6.211835509699978
aF6.208016424690209
aF6.1957411305756365
aF6.205243835967969
aF6.1985137192978765
aF6.18133703375534
aF6.1957411305756365
aF6.200745154811019
aF6.211835509699978
aF6.211835509699978
aF6.187365356335443
aF6.184592767613203
aF6.209062920977738
aF6.205243835967969
aF6.184592767613203
aF6.165783807840096
aF6.17579185631086
aF6.203517743533259
aF6.1903343960692405
aF6.17579185631086
aF6.176275001446483
aF6.200745154811019
aF6.184592767613203
aF6.18133703375534
aF6.187365356335443
aF6.159081813698413
aF6.187365356335443
aF6.214608098422218
aF6.214608098422218
aF6.214608098422218
aF6.1985137192978765
aF6.175058056030165
aF6.193106984791481
aF6.211835509699978
aF6.214608098422218
aF6.211835509699978
aF6.203517743533259
aF6.1985137192978765
aF6.18133703375534
aF6.1985137192978765
aF6.214608098422218
aF6.211835509699978
aF6.211835509699978
aF6.208016424690209
aF6.1985137192978765
aF6.1957411305756365
aF6.1903343960692405
aF6.175058056030165
aF6.165783807840096
aF6.1785644450331
aF6.208016424690209
aF6.200745154811019
aF6.18133703375534
aF6.192968541853396
aF6.180831690676908
aF6.185330371833858
aF6.1875618073470005
aF6.152490139966404
aF6.183742722337231
aF6.209062920977738
aF6.209062920977738
aF6.211835509699978
aF6.214608098422218
aF6.192968541853396
aF6.1277856048140045
aF6.147873322016864
aF6.111633217616189
aF6.1252192753512205
aF6.209062920977738
aF6.094456532073652
aF6.068596648601457
aF6.132789629049387
aF6.026224349284179
as(I3
I5
tp599
(lp600
F2.975227586682781
aF5.877245177248082
aF6.062317670876283
aF6.122781580578622
aF5.981048694583039
aF5.801089371424136
aF5.965946607612713
aF6.090779693941927
aF4.427262705468379
aF1.6897835914827048
aF2.509124248534819
aF5.040915928617496
aF6.142374237683737
aF6.175058056030165
aF6.1903343960692405
aF6.1785644450331
aF6.193106984791481
aF6.214608098422218
aF6.214608098422218
aF6.214608098422218
aF6.211835509699978
aF6.206290332255498
aF6.20247124724573
aF6.1985137192978765
aF6.186882211199818
aF6.174745360023329
aF6.173019267588618
aF6.200745154811019
aF6.1785644450331
aF6.1985137192978765
aF6.214608098422218
aF6.1957411305756365
aF6.1785644450331
aF6.1985137192978765
aF6.178564445033101
aF6.153536636253933
aF6.118457152490421
aF6.138555152673969
aF6.1818201788909635
aF6.107156734402042
aF6.095927936574996
aF6.14320038779116
aF6.1785644450331
aF6.1785644450331
aF6.1818201788909635
aF6.17579185631086
aF6.178564445033101
aF6.153536636253933
aF6.149425161382825
aF6.17579185631086
aF6.192968541853396
aF6.193106984791481
aF6.184592767613203
aF6.200745154811019
aF6.176275001446484
aF6.034315321197614
aF6.151379711019797
aF6.20524383596797
aF6.147991458809454
aF6.146652572660585
aF6.187365356335443
aF6.1957411305756365
aF6.205243835967969
aF6.193106984791481
aF6.17579185631086
aF6.1957411305756365
aF6.203517743533259
aF6.1985137192978765
aF6.203517743533259
aF6.187423364408916
aF6.200745154811019
aF6.211835509699978
aF6.208016424690209
aF6.203517743533259
aF6.203517743533259
aF6.214608098422218
aF6.214608098422218
aF6.205243835967969
aF6.203517743533259
aF6.203517743533259
aF6.203517743533259
aF6.186882211199818
aF6.181337033755338
aF6.175791856310858
aF6.200745154811019
aF6.1957411305756365
aF6.211835509699978
aF6.214608098422218
aF6.211835509699978
aF6.203517743533259
aF6.211835509699978
aF6.209062920977738
aF6.1957411305756365
aF6.208016424690209
aF6.211835509699978
aF6.208016424690209
aF6.208016424690209
aF6.211835509699978
aF6.214608098422218
aF6.214608098422218
aF6.214608098422218
aF6.200745154811019
aF6.200745154811019
aF6.211835509699978
aF6.203517743533259
aF6.190195953131156
aF6.208016424690209
aF6.209062920977738
aF6.211835509699978
aF6.20524383596797
aF6.1957411305756365
aF6.208016424690209
aF6.211835509699978
aF6.208016424690209
aF6.1957411305756365
aF6.205243835967969
aF6.1985137192978765
aF6.1647015014219
aF6.151379711019797
aF6.150838557810699
aF6.211835509699978
aF6.211835509699978
aF6.187365356335444
aF6.184592767613203
aF6.209062920977738
aF6.20524383596797
aF6.1845927676132035
aF6.165783807840096
aF6.17579185631086
aF6.203517743533259
aF6.1903343960692405
aF6.17579185631086
aF6.143003936779603
aF6.167474090144139
aF6.123595815723923
aF6.18133703375534
aF6.1845927676132035
aF6.156309224976173
aF6.187365356335443
aF6.214608098422218
aF6.214608098422218
aF6.214608098422218
aF6.1985137192978765
aF6.175058056030165
aF6.193106984791481
aF6.211835509699978
aF6.189654799922058
aF6.164701501421899
aF6.203517743533259
aF6.1985137192978765
aF6.18133703375534
aF6.1985137192978765
aF6.214608098422218
aF6.211835509699978
aF6.211835509699978
aF6.208016424690209
aF6.1985137192978765
aF6.1957411305756365
aF6.1903343960692405
aF6.166740289863445
aF6.157466041673376
aF6.1785644450331
aF6.208016424690209
aF6.200745154811019
aF6.18133703375534
aF6.192968541853396
aF6.180831690676908
aF6.185330371833859
aF6.187561807347001
aF6.152490139966404
aF6.183742722337232
aF6.209062920977738
aF6.209062920977738
aF6.211835509699978
aF6.214608098422218
aF6.192968541853396
aF6.1277856048140045
aF6.147873322016864
aF6.111633217616189
aF6.1252192753512205
aF6.209062920977738
aF6.094456532073653
aF6.068596648601458
aF6.132789629049387
aF6.026224349284179
as(I7
I5
tp601
(lp602
F3.0068828793246225
aF5.942071582742462
aF6.098800268086984
aF6.143125877512156
aF6.023110185411394
aF5.869018443389634
aF6.012248287724698
aF6.179047590168723
aF6.160238630395616
aF6.202471247245729
aF6.193106984791481
aF6.152490139966404
aF6.159192134108087
aF6.18133703375534
aF6.1985137192978765
aF6.187365356335443
aF6.193106984791481
aF6.214608098422218
aF6.214608098422218
aF6.214608098422218
aF6.211835509699978
aF6.209062920977738
aF6.209062920977738
aF6.203517743533259
aF6.203517743533259
aF6.208016424690209
aF6.211835509699978
aF6.208016424690209
aF6.187365356335443
aF6.1985137192978765
aF6.214608098422218
aF6.203517743533259
aF6.187365356335443
aF6.1985137192978765
aF6.187365356335443
aF6.163011219117856
aF6.134122819460981
aF6.156309224976173
aF6.1903343960692405
aF6.193106984791481
aF6.1985137192978765
aF6.1985137192978765
aF6.187365356335443
aF6.18133703375534
aF6.1903343960692405
aF6.184592767613203
aF6.184592767613203
aF6.163011219117856
aF6.159081813698413
aF6.187365356335443
aF6.1985137192978765
aF6.1985137192978765
aF6.193106984791481
aF6.203517743533259
aF6.193106984791481
aF6.1685563965623365
aF6.1985137192978765
aF6.209062920977738
aF6.160238630395616
aF6.159081813698413
aF6.193106984791481
aF6.1985137192978765
aF6.208016424690209
aF6.1985137192978765
aF6.184592767613203
aF6.1985137192978765
aF6.208016424690209
aF6.203517743533259
aF6.203517743533259
aF6.1985137192978765
aF6.203517743533259
aF6.214608098422218
aF6.211835509699978
aF6.203517743533259
aF6.203517743533259
aF6.214608098422218
aF6.214608098422218
aF6.208016424690209
aF6.208016424690209
aF6.208016424690209
aF6.203517743533259
aF6.211835509699978
aF6.214608098422218
aF6.211835509699978
aF6.203517743533259
aF6.203517743533259
aF6.214608098422218
aF6.214608098422218
aF6.211835509699978
aF6.203517743533259
aF6.211835509699978
aF6.211835509699978
aF6.203517743533259
aF6.211835509699978
aF6.211835509699978
aF6.208016424690209
aF6.208016424690209
aF6.211835509699978
aF6.214608098422218
aF6.214608098422218
aF6.214608098422218
aF6.208016424690209
aF6.208016424690209
aF6.211835509699978
aF6.203517743533259
aF6.1985137192978765
aF6.208016424690209
aF6.214608098422218
aF6.214608098422218
aF6.208016424690209
aF6.1985137192978765
aF6.208016424690209
aF6.211835509699978
aF6.211835509699978
aF6.203517743533259
aF6.208016424690209
aF6.1985137192978765
aF6.187365356335443
aF6.203517743533259
aF6.203517743533259
aF6.211835509699978
aF6.211835509699978
aF6.193106984791481
aF6.193106984791481
aF6.211835509699978
aF6.208016424690209
aF6.193106984791481
aF6.175058056030165
aF6.18133703375534
aF6.208016424690209
aF6.1985137192978765
aF6.1785644450331
aF6.1875618073470005
aF6.208016424690209
aF6.187365356335443
aF6.187365356335443
aF6.193106984791481
aF6.1685563965623365
aF6.193106984791481
aF6.214608098422218
aF6.214608098422218
aF6.214608098422218
aF6.1985137192978765
aF6.18133703375534
aF6.1985137192978765
aF6.211835509699978
aF6.214608098422218
aF6.211835509699978
aF6.203517743533259
aF6.203517743533259
aF6.187365356335443
aF6.1985137192978765
aF6.214608098422218
aF6.211835509699978
aF6.214608098422218
aF6.211835509699978
aF6.1985137192978765
aF6.1985137192978765
aF6.1985137192978765
aF6.18133703375534
aF6.175058056030165
aF6.187365356335443
aF6.208016424690209
aF6.208016424690209
aF6.187365356335443
aF6.1957411305756365
aF6.19138089235677
aF6.19415348107901
aF6.1957411305756365
aF6.163011219117857
aF6.187561807347001
aF6.211835509699978
aF6.211835509699978
aF6.214608098422218
aF6.214608098422218
aF6.200745154811019
aF6.149827871653839
aF6.165381097569083
aF6.1348081113454365
aF6.148011764954949
aF6.211835509699978
aF6.124736130215596
aF6.102619353096753
aF6.145218870087214
aF6.058899150867151
as(I8
I7
tp603
(lp604
F1.6566666827890955
aF3.1857008404598095
aF2.9371519054872524
aF2.615459331881269
aF2.905489883637252
aF3.057942498450031
aF1.5287447272712666
aF0.668431286798176
aF3.8961158166744654
aF6.142153891503632
aF5.788264752004381
aF4.465754030231704
aF3.8747931429386684
aF3.730973700120456
aF3.7865528996392674
aF4.1664973543191275
aF3.787065833274539
aF3.1159561198683097
aF2.9419161175397788
aF2.9713383217410008
aF3.051300365087298
aF2.782234305679308
aF2.8972864348116727
aF3.4965706976618263
aF3.3337427911409603
aF3.358283480976366
aF3.483092303817026
aF3.0839871136496737
aF3.3265555152342885
aF3.41318487950047
aF2.874248800144235
aF3.32294381345843
aF3.7167838722122952
aF3.7431922445430104
aF3.369495758220501
aF3.519365219229021
aF4.0214871534126395
aF4.15187862124935
aF3.5173548461350985
aF3.4452382989870074
aF3.4011402174561476
aF3.2696346992918652
aF3.785508161789013
aF3.84127490685694
aF3.457233148086472
aF3.241914009027065
aF3.4044233232384418
aF3.658478675855527
aF3.801107561005736
aF3.2534767706255683
aF3.1783155609056664
aF3.2789667055101432
aF3.2989983831517513
aF3.2780630220264313
aF3.6772718892397256
aF3.8679768463270343
aF3.420587537771506
aF3.5660274727534906
aF4.268460699277383
aF4.489176890815259
aF3.852719263319045
aF2.778814457905141
aF2.8134414784514292
aF3.402335926011056
aF3.469284614404029
aF2.827384048980611
aF2.6834381852193085
aF2.4823012286581503
aF3.0872572857915173
aF3.0831738973536074
aF2.6365714384147596
aF2.5212586149765257
aF2.9871601517094475
aF2.6733731224408674
aF2.8176881700212104
aF2.8942483109410806
aF2.688482389001574
aF3.0375113055512193
aF3.24503813795692
aF3.320800212615223
aF3.482533230147514
aF3.4920799347100817
aF3.2675655569405673
aF3.1740966353638838
aF3.2941520954352885
aF3.1854867308464105
aF3.0694826865301703
aF3.4861032274894237
aF3.2871699222381956
aF3.3212368047146734
aF3.224593234539366
aF3.3126819170264716
aF3.672419858103172
aF3.3218495077327477
aF3.3155335399547177
aF3.423462344005834
aF3.508372885632707
aF3.3111342314656618
aF2.9047593693369818
aF2.8400630729451963
aF3.2846843935329364
aF3.5429968891754973
aF3.593390155319013
aF3.3929731331348316
aF3.5457499152690004
aF3.708576101306445
aF3.6094278834639066
aF3.2872075844166053
aF3.155666588470257
aF3.365404125937088
aF3.464907200046622
aF2.873690261461681
aF2.858779484899582
aF3.141308829966909
aF3.4928381438262592
aF3.580157870148556
aF3.3738358034684417
aF3.3890766507734127
aF3.3246228422948376
aF3.009775825305775
aF3.1447382834748896
aF3.115202224219363
aF3.448210981447164
aF3.376427337467039
aF3.1546493472678914
aF3.586517775339705
aF3.489486093818417
aF3.568904365347255
aF3.546214603694572
aF3.5754376089384876
aF3.6161853023638333
aF3.699371512115297
aF4.232981003429729
aF3.6079084658796803
aF3.4172986822382523
aF3.6099741351712495
aF3.5615235014207203
aF3.6106904098834387
aF3.216409805479501
aF2.6373351480520766
aF2.5115179044940397
aF2.9232911993913593
aF3.0798804006597464
aF3.42058984236124
aF3.536970051150397
aF2.9557522052672125
aF2.8191771607371816
aF3.309538033453117
aF3.2237093741146388
aF2.6326547217816048
aF2.9052808320019636
aF2.7610072900978886
aF2.8898359867096
aF2.787647453382453
aF2.7392968555624386
aF3.392031327538128
aF3.6236670915001894
aF3.4646098106731538
aF3.2920879025244965
aF2.6899299652115345
aF2.946707111434141
aF2.9783193334935065
aF2.5346048459880683
aF2.2765909915342264
aF3.0311165985209096
aF3.1595423694032947
aF3.2746352143668713
aF2.886485501506889
aF2.1989930731117893
aF2.403771268942093
aF2.538299265378741
aF2.79104198452499
aF2.8976814692510082
aF2.9473224677304515
aF2.625202244622533
aF2.997643404252485
aF2.918775829031509
aF2.6383503529200065
aF2.5814630094380306
aF1.9111558999080391
aF1.7058269690697718
aF2.8326455857798485
aF2.782221688798848
aF2.9367057720129206
aF2.8613946474721184
as(I6
I5
tp605
(lp606
F2.975227586682781
aF5.877245177248082
aF6.062317670876283
aF6.122781580578622
aF5.981048694583039
aF5.801089371424138
aF5.965946607612714
aF6.130696636474327
aF4.390108631035299
aF1.1542418059320636
aF1.9493704536913072
aF5.086881022334926
aF6.142374237683737
aF6.175058056030165
aF6.1903343960692405
aF6.1785644450331
aF6.193106984791481
aF6.214608098422218
aF6.214608098422218
aF6.214608098422218
aF6.211835509699978
aF6.206290332255499
aF6.202471247245729
aF6.1985137192978765
aF6.203517743533259
aF6.208016424690209
aF6.211835509699978
aF6.200745154811019
aF6.1785644450331
aF6.198513719297877
aF6.214608098422218
aF6.1957411305756365
aF6.1785644450331
aF6.1985137192978765
aF6.178564445033101
aF6.153536636253934
aF6.121229741212662
aF6.138555152673969
aF6.181820178890963
aF6.182016629902521
aF6.190195953131157
aF6.1903343960692405
aF6.178564445033101
aF6.178564445033101
aF6.1818201788909635
aF6.175791856310861
aF6.178564445033101
aF6.153536636253934
aF6.149425161382825
aF6.1785644450331
aF6.1957411305756365
aF6.1931069847914815
aF6.1845927676132035
aF6.200745154811019
aF6.1845927676132035
aF6.142446281364974
aF6.192968541853397
aF6.20524383596797
aF6.150764047531694
aF6.149425161382825
aF6.187365356335444
aF6.1957411305756365
aF6.205243835967969
aF6.193106984791481
aF6.175791856310861
aF6.1957411305756365
aF6.203517743533259
aF6.1985137192978765
aF6.203517743533259
aF6.1957411305756365
aF6.200745154811019
aF6.211835509699978
aF6.20801642469021
aF6.203517743533259
aF6.203517743533259
aF6.214608098422218
aF6.214608098422218
aF6.205243835967969
aF6.203517743533259
aF6.203517743533259
aF6.203517743533259
aF6.203517743533259
aF6.214608098422218
aF6.211835509699978
aF6.200745154811019
aF6.1957411305756365
aF6.211835509699978
aF6.214608098422218
aF6.211835509699978
aF6.203517743533259
aF6.211835509699978
aF6.209062920977738
aF6.1957411305756365
aF6.208016424690209
aF6.211835509699978
aF6.20801642469021
aF6.20801642469021
aF6.211835509699978
aF6.214608098422218
aF6.214608098422218
aF6.214608098422218
aF6.200745154811019
aF6.200745154811019
aF6.211835509699978
aF6.203517743533259
aF6.1957411305756365
aF6.208016424690209
aF6.209062920977738
aF6.211835509699978
aF6.208016424690209
aF6.1985137192978765
aF6.208016424690209
aF6.211835509699978
aF6.208016424690209
aF6.1957411305756365
aF6.205243835967969
aF6.1985137192978765
aF6.181337033755341
aF6.1957411305756365
aF6.200745154811019
aF6.211835509699978
aF6.211835509699978
aF6.187365356335443
aF6.1845927676132035
aF6.209062920977738
aF6.205243835967969
aF6.184592767613203
aF6.165783807840096
aF6.17579185631086
aF6.203517743533259
aF6.190334396069241
aF6.17579185631086
aF6.176275001446483
aF6.200745154811019
aF6.184592767613203
aF6.181337033755341
aF6.187365356335443
aF6.159081813698413
aF6.187365356335443
aF6.214608098422218
aF6.214608098422218
aF6.214608098422218
aF6.1985137192978765
aF6.175058056030165
aF6.1931069847914815
aF6.211835509699978
aF6.214608098422218
aF6.211835509699978
aF6.203517743533259
aF6.1985137192978765
aF6.18133703375534
aF6.1985137192978765
aF6.214608098422218
aF6.211835509699978
aF6.211835509699978
aF6.20801642469021
aF6.1985137192978765
aF6.1957411305756365
aF6.1903343960692405
aF6.175058056030165
aF6.165783807840096
aF6.1785644450331
aF6.208016424690209
aF6.200745154811019
aF6.18133703375534
aF6.192968541853396
aF6.180831690676909
aF6.185330371833859
aF6.1875618073470005
aF6.152490139966404
aF6.183742722337231
aF6.209062920977738
aF6.209062920977738
aF6.211835509699978
aF6.214608098422218
aF6.192968541853396
aF6.1277856048140045
aF6.147873322016865
aF6.111633217616189
aF6.1252192753512205
aF6.209062920977738
aF6.094456532073653
aF6.068596648601458
aF6.132789629049387
aF6.026224349284181
as(I6
I8
tp607
(lp608
F1.656666682789096
aF3.0317013730113183
aF2.817095426914081
aF2.4388637793563857
aF2.905489883637252
aF2.930353279369098
aF1.4694848332570412
aF0.6142002617096597
aF1.947491783740491
aF1.0020252493649344
aF1.4245153997962008
aF3.1013962321276716
aF3.524521967925437
aF3.3469045887234747
aF3.380196254522619
aF3.6737257075386673
aF3.445632365750332
aF2.9301336895297405
aF2.7794844630442554
aF2.834976131272821
aF2.9149077850538485
aF2.692163485654276
aF2.820874699945238
aF3.382876166047147
aF3.2867307235954324
aF3.3248319173277405
aF3.3600389464531006
aF3.008710955183985
aF3.254642461524802
aF3.3291707847451617
aF2.8001043109216064
aF3.182779954108298
aF3.5126272548761523
aF3.5657639824474825
aF3.1671946324894265
aF3.256852256005201
aF3.614356601019693
aF3.63610622441604
aF3.1634148503585515
aF3.273409647317798
aF3.192878585466338
aF3.070224299075617
aF3.506502445655844
aF3.6134213213431328
aF3.3312597472655865
aF3.1200401541837497
aF3.2430314321937783
aF3.406673663395148
aF3.5119937499143457
aF3.0133853983535923
aF2.9937506679290724
aF3.178451717419521
aF3.19597887761178
aF3.0440031757285144
aF3.3207528159729884
aF3.5658456009698876
aF3.2816048137070246
aF3.381466383716854
aF3.6902270727866644
aF3.723477771794302
aF3.4307536835506958
aF2.4739686430912644
aF2.321496498579216
aF2.990557200748882
aF3.2083564152349036
aF2.745002228455876
aF2.5915758572450485
aF2.362413929642515
aF2.987560336786161
aF2.906876481105792
aF2.3884537491824585
aF2.020943215252447
aF2.6473072967226625
aF2.4532321034343467
aF2.535128594994304
aF2.69257323741639
aF2.486286419315121
aF2.8261481377278317
aF3.1493567249728893
aF3.177096815300839
aF3.3311886091918907
aF3.40325446279099
aF3.0089610667760676
aF2.9382377418121943
aF3.0270927117183777
aF3.0624379944498354
aF3.015528547317823
aF3.4631068141887917
aF3.2598872265425825
aF3.2467708315700827
aF3.169288014054816
aF3.1972518878674387
aF3.46187390810299
aF3.1886858078452476
aF3.1215279540465017
aF3.406459911532047
aF3.357199569592659
aF3.2108262130006002
aF2.8149411734260625
aF2.8334713992131886
aF3.2457180084382857
aF3.3747946668806756
aF3.510873018903187
aF3.3531103947359444
aF3.363482831271105
aF3.5770102487397093
aF3.423104891861895
aF3.073989424795319
aF3.0505108418159677
aF3.28321875642391
aF3.1787706360760195
aF2.6998650934861876
aF2.7974156328699578
aF3.084443659094237
aF3.18764271826776
aF3.2997651703266095
aF3.2862795095795336
aF3.2943837260034385
aF3.2528943246347906
aF2.961196414409116
aF3.094831686474574
aF2.9834907700340745
aF3.230723529941191
aF3.24109324928354
aF3.0307725141136994
aF3.3645500366796273
aF3.3081807386396456
aF3.3605546108905813
aF3.2632860796112735
aF3.336658113356574
aF3.408097923442776
aF3.4227836502835514
aF3.868972171781155
aF3.4035158159509535
aF3.311609220783458
aF3.520920206049893
aF3.519934670587123
aF3.428243913027708
aF3.146112523795053
aF2.5681946830648332
aF2.4601979110658454
aF2.870106670590372
aF3.012466028107213
aF3.353855065955886
aF3.2927230256944124
aF2.7767325358056327
aF2.689972434781201
aF3.249447414151044
aF3.062702939225231
aF2.5761022469157666
aF2.8591876242741407
aF2.5634309901366983
aF2.7400572520381066
aF2.7710119210490136
aF2.733751678117959
aF3.340711334109934
aF3.4237490981476766
aF3.2308397937801074
aF3.2401829983384056
aF2.6150158655775457
aF2.8009846912999996
aF2.904680187349311
aF2.4629202494808475
aF2.2057933102037772
aF3.010661981177701
aF3.144632929504567
aF3.2746352143668713
aF2.7637830549051654
aF2.0303835588029506
aF2.403771268942093
aF2.53829926537874
aF2.791041984524991
aF2.8976814692510087
aF2.9473224677304515
aF2.625202244622533
aF2.997643404252485
aF2.8505046625641532
aF2.638350352920007
aF2.5814630094380315
aF1.9111558999080394
aF1.7058269690697718
aF2.832645585779848
aF2.782221688798849
aF2.936705772012921
aF2.848602095316992
as(I8
I3
tp609
(lp610
F1.6339367087799184
aF2.980617653168303
aF2.7897626705631273
aF2.426726928179897
aF2.874418077257741
aF2.851548221188151
aF1.3813613691298638
aF0.5553766634498993
aF1.872018881052113
aF1.4711973313530018
aF1.916285164324864
aF2.9909066648341986
aF3.375839126618174
aF3.2372186703241583
aF3.2958521641781884
aF3.576488422400388
aF3.3879152578043765
aF2.9085521410343946
aF2.7605594871241994
aF2.8161091634262396
aF2.9017244375898303
aF2.676887145615203
aF2.798188647088889
aF3.3462691615061235
aF3.258866393434952
aF3.2976471833144396
aF3.330564768853183
aF2.9794554265384345
aF3.208867645541089
aF3.2905287957025555
aF2.7738760589316565
aF3.1354649988038346
aF3.4395910739544897
aF3.5058851471070684
aF3.097545020483789
aF3.160192083332678
aF3.4546890393930885
aF3.4631568463415077
aF3.1006958388228543
aF3.219751781629086
aF3.1278340913650298
aF2.9977235756257787
aF3.38834337735024
aF3.506440483915349
aF3.2529251603822202
aF3.0475859472651687
aF3.1971962725740397
aF3.340199055743516
aF3.396587636205506
aF2.9093303178435947
aF2.9238637841178927
aF3.131836664407733
aF3.1655608365317516
aF3.0097436228475822
aF3.2378453462243257
aF3.436607310311474
aF3.2422753698799083
aF3.340003377278103
aF3.542218731123352
aF3.529212105113742
aF3.3143684664557957
aF2.436427354469699
aF2.2778146751705606
aF2.9372924659316126
aF3.159925255524226
aF2.707406735700798
aF2.546113737268169
aF2.3240710244188842
aF2.963116185304394
aF2.8757564170874486
aF2.3724978129962024
aF2.018170626530207
aF2.6272195795198026
aF2.434365135587765
aF2.518493062660865
aF2.6849350673968524
aF2.483513830592882
aF2.810559101681922
aF3.1316746963519217
aF3.1557341446081857
aF3.301092843518265
aF3.3856082443006876
aF2.997870711887109
aF2.9271473869232336
aF3.0045451018001113
aF3.0464820582635794
aF3.002345199853805
aF3.447150878002535
aF3.253295552810573
aF3.2297683990962964
aF3.164789332897866
aF3.191706710422959
aF3.440234351534169
aF3.1748586743647147
aF3.1157863255904648
aF3.399868237800039
aF3.338837944824509
aF3.184687975274829
aF2.8055769109718143
aF2.830698810490949
aF3.2374002422715664
aF3.3598852269819477
aF3.485691263200767
aF3.3144684056933365
aF3.3199974588740093
aF3.5356417640862134
aF3.3869867281937682
aF3.04219379741808
aF3.0404669832145377
aF3.2655367278029415
aF3.1344672245936565
aF2.6635669810120386
aF2.779537153237433
aF3.0555686427768927
aF3.1505468728538393
aF3.2713539912197565
aF3.2457168688879707
aF3.2588812258234188
aF3.2118244490674823
aF2.927961159872905
aF3.068326548608454
aF2.933986883304772
aF3.1765409335265784
aF3.186321070985926
aF2.9816839561986486
aF3.3046353912085467
aF3.2398903189283708
aF3.2727878303823523
aF3.1646676330841506
aF3.2816448593134586
aF3.3506915993610047
aF3.323061384469382
aF3.76928378662167
aF3.3605033057087943
aF3.2601507844171804
aF3.472739701484288
aF3.4839268273286708
aF3.3741513308772735
aF3.1135210552753554
aF2.558289267401487
aF2.4447831280886865
aF2.830849018059659
aF2.978918077564166
aF3.292124313785916
aF3.2571625174409173
aF2.767735173491731
aF2.6749245519443887
aF3.236630966827373
aF3.038831947143269
aF2.5593282716442434
aF2.8363631284797073
aF2.5357051029143
aF2.727920400861619
aF2.748464311130748
aF2.7226613232289996
aF3.323570458698066
aF3.389431537193271
aF3.1859150230723645
aF3.199814916861089
aF2.542375015895303
aF2.7161525574594267
aF2.8530833080449494
aF2.45632857574884
aF2.1936564590272893
aF2.9779320697199214
aF3.1164016992037364
aF3.2499946118735488
aF2.746101026284198
aF2.027610970080711
aF2.396133098922555
aF2.530661095359202
aF2.7872228995152213
aF2.897681469251009
aF2.947322467730452
aF2.6252022446225327
aF2.989866791294862
aF2.8353987716538662
aF2.6278011512401456
aF2.566898271736843
aF1.8965911622068508
aF1.7008229448343897
aF2.8087745936978856
aF2.7587080174576633
aF2.9224759282613744
aF2.8180494152388413
as(I4
I6
tp611
(lp612
F0.6321821388837977
aF0.5859940914585237
aF0.3776841048294376
aF0.25287196009490426
aF0.4456270339863192
aF0.8074725206105489
aF0.8198333663821915
aF0.31498266011129517
aF2.0158035445272593
aF2.540110705449523
aF2.5037782583957875
aF1.7918289765177806
aF0.9587681014535503
aF0.8187408035151299
aF0.8045246315108207
aF0.8153694597716116
aF0.6886691675091499
aF0.5667158238353938
aF0.3149004020850027
aF0.26407832852401025
aF0.23046903126331544
aF0.3239450613889004
aF0.4340012498886782
aF0.49614996120776844
aF0.39027324656812656
aF0.3222638967337839
aF0.4235649203751732
aF0.43454340848919226
aF0.4943544603283759
aF0.4672892450268651
aF0.44041441183482394
aF0.5858391831378789
aF0.6807224970334066
aF0.5797860293033255
aF0.6559739454397504
aF0.7739517246402305
aF0.9290488748148136
aF0.996752466150378
aF0.7385619054768888
aF0.666406466035272
aF0.6865992177336082
aF0.6925773630035471
aF0.8736168281798256
aF0.8010622826577777
aF0.6768997105325207
aF0.6576570332471857
aF0.6129953015788366
aF0.7642612835515111
aF0.8240298246488408
aF0.7727740853661356
aF0.6795468353091254
aF0.49432253075528804
aF0.5093713087539052
aF0.548030065944597
aF0.7013933596062891
aF0.9434643711537741
aF0.6587179692174513
aF0.6050673177450595
aF0.9909369360052165
aF1.0529529141821703
aF0.9307586036547711
aF0.5237701931023883
aF0.3906004379398647
aF0.6042802668998356
aF0.6528573052411225
aF0.5174456340523624
aF0.4714095359722747
aF0.4265948256490298
aF0.41666102552976697
aF0.41423231482448
aF0.21615277482818768
aF0.17505587772210698
aF0.36628961884422306
aF0.37810218941615353
aF0.32002765011443535
aF0.2588457567009769
aF0.23046903126331544
aF0.3032721883340453
aF0.281170553841369
aF0.28483503858866543
aF0.4566458143898671
aF0.4247755825088781
aF0.2817057628739213
aF0.2873511134372619
aF0.3931675151894809
aF0.3339488335901919
aF0.20035059143797004
aF0.19111444671578173
aF0.18094746666983091
aF0.2791303985771982
aF0.2774423690133445
aF0.31854458051252904
aF0.418189169226237
aF0.3433477531169072
aF0.2780355150699858
aF0.24703540176703032
aF0.2675425584469431
aF0.268727701476069
aF0.1643867949084726
aF0.22119880538597278
aF0.22119880538597278
aF0.3479628272427528
aF0.45516379283444003
aF0.4166015197296102
aF0.47791227066175
aF0.5339932121100471
aF0.5789988924099305
aF0.46860830373562956
aF0.2729476040991528
aF0.39852132692954073
aF0.4998221884195026
aF0.3806852128081282
aF0.36351069296148936
aF0.4062136145638681
aF0.43939821321748596
aF0.45198060388770855
aF0.4556313242930434
aF0.4464701907330766
aF0.473802645147089
aF0.43086191316245537
aF0.41173593843231227
aF0.5868114649243129
aF0.660746739522256
aF0.5942951296290719
aF0.558697171380395
aF0.676983683673541
aF0.6543862959431238
aF0.7145838110644592
aF0.7522637879521438
aF0.6894823552551652
aF0.6490871252212452
aF0.801074143045118
aF0.8723754641818285
aF0.5733850556871797
aF0.5413685647622936
aF0.5181571597726319
aF0.4462763875689521
aF0.556685370570488
aF0.49635893053528884
aF0.4073119739939491
aF0.36944205498701915
aF0.41179894062765354
aF0.4282939691995066
aF0.5187285753743499
aF0.4364936281405333
aF0.25532371319270253
aF0.33131462370156356
aF0.3609141418871593
aF0.39755073441700384
aF0.3677021371980168
aF0.3870754090762944
aF0.3602299844526747
aF0.2873331191896302
aF0.32138607165998145
aF0.23331395638555266
aF0.37355503200719403
aF0.43571927966631524
aF0.35409850838585194
aF0.38953780362727014
aF0.5594765542454794
aF0.6401907257491894
aF0.479541884669712
aF0.20719435125352886
aF0.20722181177113375
aF0.3304637898890673
aF0.31345293966817667
aF0.26362452782788376
aF0.20755352803766225
aF0.1170445240643967
aF0.18301702672916467
aF0.17493394440636292
aF0.10316819021727235
aF0.06655073603470879
aF0.06932332475694856
aF0.06932332475694856
aF0.1565180961543803
aF0.2694236990616103
aF0.24426726236784135
aF0.2846718135359379
aF0.2565528310149166
aF0.09866950906032189
aF0.33517353246579684
aF0.3526482373914296
aF0.24855548569969144
aF0.40078628898554075
as(I7
I8
tp613
(lp614
F1.6566666827890952
aF3.1857008404598095
aF2.9371519054872515
aF2.61545933188127
aF2.9054898836372516
aF3.0579424984500316
aF1.5287447272712669
aF0.668431286798176
aF3.8961158166744663
aF6.142153891503631
aF5.7882647520043795
aF4.465754030231704
aF3.874793142938671
aF3.730973700120456
aF3.786552899639266
aF4.166497354319126
aF3.7870658332745375
aF3.1159561198683097
aF2.9419161175397783
aF2.9713383217410017
aF3.051300365087299
aF2.7822343056793093
aF2.897286434811675
aF3.496570697661827
aF3.3337427911409607
aF3.3582834809763655
aF3.483092303817026
aF3.0839871136496733
aF3.3265555152342885
aF3.413184879500469
aF2.874248800144235
aF3.3229438134584295
aF3.716783872212296
aF3.7431922445430117
aF3.369495758220501
aF3.5193652192290203
aF4.02148715341264
aF4.1518786212493515
aF3.5173548461350994
aF3.445238298987005
aF3.4011402174561454
aF3.269634699291865
aF3.7855081617890125
aF3.8412749068569396
aF3.4572331480864706
aF3.241914009027065
aF3.404423323238441
aF3.6584786758555277
aF3.8011075610057365
aF3.253476770625568
aF3.1783155609056655
aF3.2789667055101432
aF3.298998383151752
aF3.2780630220264313
aF3.677271889239725
aF3.8679768463270334
aF3.420587537771504
aF3.566027472753489
aF4.268460699277382
aF4.489176890815257
aF3.852719263319045
aF2.7788144579051393
aF2.81344147845143
aF3.4023359260110557
aF3.4692846144040304
aF2.8273840489806124
aF2.6834381852193094
aF2.48230122865815
aF3.0872572857915177
aF3.083173897353608
aF2.636571438414758
aF2.5212586149765266
aF2.987160151709446
aF2.673373122440868
aF2.817688170021211
aF2.8942483109410806
aF2.688482389001573
aF3.0375113055512184
aF3.24503813795692
aF3.3208002126152225
aF3.4825332301475145
aF3.4920799347100813
aF3.2675655569405664
aF3.174096635363883
aF3.2941520954352876
aF3.185486730846412
aF3.0694826865301708
aF3.4861032274894237
aF3.287169922238196
aF3.321236804714672
aF3.224593234539367
aF3.3126819170264716
aF3.672419858103172
aF3.3218495077327477
aF3.315533539954718
aF3.4234623440058334
aF3.508372885632706
aF3.3111342314656618
aF2.904759369336982
aF2.8400630729451977
aF3.284684393532937
aF3.5429968891754995
aF3.5933901553190144
aF3.3929731331348307
aF3.545749915269001
aF3.7085761013064444
aF3.6094278834639035
aF3.2872075844166067
aF3.155666588470259
aF3.365404125937089
aF3.464907200046623
aF2.873690261461681
aF2.858779484899582
aF3.1413088299669103
aF3.49283814382626
aF3.5801578701485584
aF3.3738358034684413
aF3.3890766507734127
aF3.324622842294839
aF3.0097758253057747
aF3.14473828347489
aF3.1152022242193635
aF3.448210981447164
aF3.376427337467038
aF3.1546493472678923
aF3.5865177753397037
aF3.489486093818417
aF3.568904365347255
aF3.546214603694574
aF3.5754376089384867
aF3.6161853023638333
aF3.6993715121152984
aF4.232981003429729
aF3.6079084658796794
aF3.4172986822382527
aF3.609974135171249
aF3.561523501420719
aF3.610690409883439
aF3.2164098054795005
aF2.6373351480520766
aF2.511517904494039
aF2.9232911993913584
aF3.079880400659746
aF3.420589842361239
aF3.536970051150398
aF2.9557522052672103
aF2.8191771607371807
aF3.3095380334531166
aF3.2237093741146383
aF2.632654721781605
aF2.905280832001962
aF2.761007290097888
aF2.8898359867096004
aF2.7876474533824522
aF2.739296855562439
aF3.3920313275381297
aF3.6236670915001907
aF3.4646098106731533
aF3.292087902524496
aF2.6899299652115345
aF2.946707111434142
aF2.9783193334935056
aF2.534604845988069
aF2.2765909915342273
aF3.0311165985209096
aF3.1595423694032942
aF3.2746352143668718
aF2.8864855015068893
aF2.1989930731117893
aF2.4037712689420934
aF2.538299265378741
aF2.7910419845249903
aF2.8976814692510082
aF2.947322467730452
aF2.6252022446225327
aF2.997643404252485
aF2.9187758290315093
aF2.638350352920007
aF2.5814630094380315
aF1.9111558999080391
aF1.7058269690697718
aF2.832645585779849
aF2.782221688798849
aF2.936705772012921
aF2.8613946474721175
as(I5
I7
tp615
(lp616
F3.0068828793246234
aF5.942071582742462
aF6.098800268086984
aF6.143125877512156
aF6.023110185411395
aF5.869018443389634
aF6.0122482877247
aF6.179047590168723
aF6.160238630395616
aF6.202471247245729
aF6.1931069847914815
aF6.152490139966404
aF6.159192134108087
aF6.18133703375534
aF6.1985137192978765
aF6.187365356335444
aF6.1931069847914815
aF6.214608098422218
aF6.214608098422218
aF6.214608098422218
aF6.211835509699978
aF6.209062920977738
aF6.209062920977738
aF6.203517743533259
aF6.203517743533259
aF6.208016424690209
aF6.211835509699978
aF6.208016424690209
aF6.187365356335444
aF6.1985137192978765
aF6.214608098422218
aF6.203517743533259
aF6.187365356335444
aF6.1985137192978765
aF6.187365356335444
aF6.163011219117856
aF6.134122819460981
aF6.156309224976173
aF6.190334396069241
aF6.1931069847914815
aF6.1985137192978765
aF6.1985137192978765
aF6.187365356335444
aF6.18133703375534
aF6.190334396069241
aF6.1845927676132035
aF6.1845927676132035
aF6.163011219117856
aF6.159081813698413
aF6.187365356335444
aF6.1985137192978765
aF6.1985137192978765
aF6.1931069847914815
aF6.203517743533259
aF6.1931069847914815
aF6.1685563965623365
aF6.1985137192978765
aF6.209062920977739
aF6.160238630395617
aF6.159081813698413
aF6.1931069847914815
aF6.1985137192978765
aF6.208016424690209
aF6.1985137192978765
aF6.1845927676132035
aF6.1985137192978765
aF6.208016424690209
aF6.203517743533259
aF6.203517743533259
aF6.1985137192978765
aF6.203517743533259
aF6.214608098422218
aF6.211835509699978
aF6.203517743533259
aF6.203517743533259
aF6.214608098422218
aF6.214608098422218
aF6.208016424690209
aF6.208016424690209
aF6.208016424690209
aF6.203517743533259
aF6.211835509699978
aF6.214608098422218
aF6.211835509699978
aF6.203517743533259
aF6.203517743533259
aF6.214608098422218
aF6.214608098422218
aF6.211835509699978
aF6.203517743533259
aF6.211835509699978
aF6.211835509699978
aF6.203517743533259
aF6.211835509699978
aF6.211835509699978
aF6.208016424690209
aF6.208016424690209
aF6.211835509699978
aF6.214608098422218
aF6.214608098422218
aF6.214608098422218
aF6.208016424690209
aF6.208016424690209
aF6.211835509699978
aF6.203517743533259
aF6.1985137192978765
aF6.208016424690209
aF6.214608098422218
aF6.214608098422218
aF6.208016424690209
aF6.1985137192978765
aF6.208016424690209
aF6.211835509699978
aF6.211835509699978
aF6.203517743533259
aF6.208016424690209
aF6.1985137192978765
aF6.187365356335444
aF6.203517743533259
aF6.203517743533259
aF6.211835509699978
aF6.211835509699978
aF6.1931069847914815
aF6.1931069847914815
aF6.211835509699978
aF6.208016424690209
aF6.1931069847914815
aF6.175058056030165
aF6.18133703375534
aF6.20801642469021
aF6.1985137192978765
aF6.178564445033101
aF6.187561807347001
aF6.208016424690209
aF6.187365356335444
aF6.187365356335444
aF6.1931069847914815
aF6.1685563965623365
aF6.1931069847914815
aF6.214608098422218
aF6.214608098422218
aF6.214608098422218
aF6.1985137192978765
aF6.18133703375534
aF6.1985137192978765
aF6.211835509699978
aF6.214608098422218
aF6.211835509699978
aF6.203517743533259
aF6.203517743533259
aF6.187365356335444
aF6.1985137192978765
aF6.214608098422218
aF6.211835509699978
aF6.214608098422218
aF6.211835509699978
aF6.1985137192978765
aF6.1985137192978765
aF6.1985137192978765
aF6.18133703375534
aF6.175058056030165
aF6.187365356335444
aF6.208016424690209
aF6.208016424690209
aF6.187365356335444
aF6.1957411305756365
aF6.19138089235677
aF6.19415348107901
aF6.1957411305756365
aF6.163011219117856
aF6.187561807347001
aF6.211835509699978
aF6.211835509699978
aF6.214608098422218
aF6.214608098422218
aF6.200745154811019
aF6.149827871653839
aF6.165381097569083
aF6.134808111345437
aF6.1480117649549495
aF6.211835509699978
aF6.124736130215597
aF6.102619353096753
aF6.145218870087214
aF6.058899150867153
as(I3
I8
tp617
(lp618
F1.6339367087799181
aF2.980617653168304
aF2.789762670563127
aF2.426726928179897
aF2.874418077257741
aF2.8515482211881524
aF1.381361369129864
aF0.5553766634498993
aF1.872018881052113
aF1.4711973313530018
aF1.9162851643248635
aF2.9909066648341995
aF3.3758391266181738
aF3.2372186703241588
aF3.2958521641781884
aF3.5764884224003874
aF3.387915257804376
aF2.9085521410343946
aF2.7605594871241994
aF2.8161091634262405
aF2.9017244375898303
aF2.676887145615202
aF2.798188647088888
aF3.3462691615061253
aF3.258866393434951
aF3.2976471833144405
aF3.330564768853184
aF2.979455426538435
aF3.2088676455410896
aF3.290528795702556
aF2.773876058931656
aF3.1354649988038346
aF3.439591073954489
aF3.505885147107069
aF3.097545020483789
aF3.160192083332679
aF3.454689039393088
aF3.4631568463415072
aF3.1006958388228543
aF3.219751781629085
aF3.127834091365031
aF2.9977235756257783
aF3.388343377350239
aF3.5064404839153487
aF3.2529251603822193
aF3.047585947265169
aF3.1971962725740397
aF3.340199055743517
aF3.3965876362055076
aF2.9093303178435947
aF2.9238637841178927
aF3.131836664407733
aF3.1655608365317507
aF3.009743622847583
aF3.2378453462243257
aF3.436607310311474
aF3.242275369879909
aF3.3400033772781024
aF3.542218731123353
aF3.529212105113741
aF3.314368466455796
aF2.4364273544696986
aF2.2778146751705606
aF2.9372924659316126
aF3.159925255524227
aF2.707406735700798
aF2.546113737268169
aF2.3240710244188847
aF2.9631161853043944
aF2.8757564170874486
aF2.372497812996202
aF2.018170626530207
aF2.627219579519802
aF2.4343651355877656
aF2.518493062660865
aF2.6849350673968524
aF2.483513830592881
aF2.810559101681921
aF3.131674696351922
aF3.155734144608186
aF3.3010928435182647
aF3.3856082443006876
aF2.997870711887109
aF2.9271473869232345
aF3.0045451018001104
aF3.046482058263578
aF3.002345199853805
aF3.447150878002535
aF3.2532955528105734
aF3.2297683990962964
aF3.1647893328978656
aF3.1917067104229595
aF3.4402343515341687
aF3.1748586743647143
aF3.1157863255904648
aF3.3998682378000384
aF3.338837944824509
aF3.1846879752748287
aF2.8055769109718147
aF2.8306988104909494
aF3.2374002422715655
aF3.3598852269819477
aF3.485691263200766
aF3.314468405693336
aF3.319997458874009
aF3.535641764086215
aF3.3869867281937682
aF3.0421937974180806
aF3.040466983214538
aF3.265536727802941
aF3.134467224593657
aF2.663566981012038
aF2.779537153237433
aF3.055568642776892
aF3.150546872853839
aF3.271353991219757
aF3.2457168688879707
aF3.258881225823418
aF3.211824449067482
aF2.9279611598729045
aF3.068326548608454
aF2.933986883304771
aF3.176540933526578
aF3.186321070985926
aF2.981683956198648
aF3.304635391208546
aF3.2398903189283708
aF3.272787830382352
aF3.16466763308415
aF3.281644859313459
aF3.350691599361005
aF3.323061384469383
aF3.769283786621669
aF3.360503305708794
aF3.26015078441718
aF3.4727397014842887
aF3.4839268273286716
aF3.3741513308772735
aF3.113521055275354
aF2.558289267401487
aF2.444783128088686
aF2.8308490180596597
aF2.9789180775641664
aF3.2921243137859144
aF3.2571625174409173
aF2.767735173491731
aF2.6749245519443883
aF3.2366309668273745
aF3.0388319471432688
aF2.5593282716442434
aF2.836363128479706
aF2.5357051029143003
aF2.7279204008616187
aF2.748464311130748
aF2.7226613232289996
aF3.323570458698065
aF3.389431537193272
aF3.1859150230723654
aF3.1998149168610888
aF2.542375015895304
aF2.7161525574594267
aF2.85308330804495
aF2.45632857574884
aF2.1936564590272893
aF2.977932069719921
aF3.116401699203737
aF3.2499946118735483
aF2.746101026284198
aF2.027610970080711
aF2.3961330989225558
aF2.530661095359203
aF2.7872228995152213
aF2.8976814692510096
aF2.9473224677304537
aF2.625202244622533
aF2.9898667912948627
aF2.8353987716538667
aF2.6278011512401456
aF2.566898271736842
aF1.8965911622068508
aF1.7008229448343901
aF2.808774593697886
aF2.7587080174576637
aF2.9224759282613744
aF2.8180494152388404
as(I4
I3
tp619
(lp620
F0.6321821388837977
aF0.5859940914585237
aF0.3776841048294376
aF0.25287196009490426
aF0.4456270339863192
aF0.8074725206105489
aF0.8198333663821915
aF0.3149826601112952
aF2.046294860636615
aF3.0363369210374582
aF3.0239399650711727
aF1.804144135460386
aF0.9587681014535504
aF0.8187408035151299
aF0.8045246315108207
aF0.8153694597716116
aF0.6886691675091499
aF0.5667158238353937
aF0.3149004020850027
aF0.26407832852401025
aF0.23046903126331544
aF0.32394506138890045
aF0.4340012498886782
aF0.4961499612077684
aF0.3902732465681266
aF0.32226389673378397
aF0.4235649203751732
aF0.43454340848919226
aF0.4943544603283759
aF0.4672892450268651
aF0.44041441183482394
aF0.5858391831378789
aF0.6807224970334068
aF0.5797860293033255
aF0.6559739454397506
aF0.7739517246402307
aF0.9290488748148135
aF0.996752466150378
aF0.7385619054768888
aF0.6524110763559383
aF0.6614867634351647
aF0.667424299132044
aF0.8598981074452094
aF0.8010622826577778
aF0.6628845431788554
aF0.64363204991797
aF0.6129953015788367
aF0.7642612835515111
aF0.824029824648841
aF0.7727740853661356
aF0.6795468353091254
aF0.49432253075528804
aF0.4952229173059015
aF0.5339188416688552
aF0.701393359606289
aF0.9434643711537741
aF0.6446783516693464
aF0.5910374444354215
aF0.9909369360052165
aF1.0400898433575534
aF0.8966936802028206
aF0.4982322163582374
aF0.39060043793986465
aF0.6042802668998356
aF0.6528573052411224
aF0.5174456340523624
aF0.47140953597227475
aF0.4265948256490298
aF0.4166610255297669
aF0.41423231482448
aF0.21615277482818773
aF0.17505587772210698
aF0.35204244184404004
aF0.3638593983843983
aF0.3200276501144354
aF0.2588457567009769
aF0.23046903126331542
aF0.30327218833404523
aF0.281170553841369
aF0.28483503858866543
aF0.4566458143898672
aF0.4247755825088781
aF0.2817057628739213
aF0.2873511134372619
aF0.3931675151894809
aF0.3196497617664993
aF0.18598848916465577
aF0.1911144467157817
aF0.18094746666983091
aF0.26483132675350557
aF0.24109853825384256
aF0.28221348865438345
aF0.40396845348275
aF0.3291005761167242
aF0.25218019084232257
aF0.23270666837162762
aF0.2675425584469431
aF0.26872770147606895
aF0.16438679490847258
aF0.22119880538597278
aF0.22119880538597275
aF0.3479628272427528
aF0.45516379283444
aF0.4023808039861232
aF0.46374099565892046
aF0.5339932121100471
aF0.5649495778683833
aF0.45442794812306253
aF0.27294760409915286
aF0.3985213269295408
aF0.49982218841950266
aF0.3806852128081283
aF0.36351069296148936
aF0.4062136145638682
aF0.439398213217486
aF0.4519806038877085
aF0.4556313242930434
aF0.4464701907330766
aF0.47380264514708903
aF0.4308619131624553
aF0.4117359384323122
aF0.5868114649243128
aF0.660746739522256
aF0.5942951296290718
aF0.558697171380395
aF0.6769836836735409
aF0.6543862959431238
aF0.7145838110644593
aF0.7522637879521438
aF0.664349544634758
aF0.6239239730506212
aF0.801074143045118
aF0.8723754641818288
aF0.5733850556871797
aF0.5413685647622937
aF0.518157159772632
aF0.43205567182546506
aF0.5311657846957288
aF0.4603959729716002
aF0.36149289754929315
aF0.32353496828576267
aF0.3861256632694852
aF0.4282939691995066
aF0.5187285753743498
aF0.43649362814053333
aF0.25532371319270253
aF0.33131462370156356
aF0.36091414188715926
aF0.39755073441700384
aF0.3677021371980168
aF0.3870754090762944
aF0.3602299844526747
aF0.2730383208734629
aF0.2955647902423613
aF0.20738307890887292
aF0.35931663658337315
aF0.4357192796663153
aF0.35409850838585194
aF0.3895378036272702
aF0.5594765542454793
aF0.62613658028507
aF0.46533900628707847
aF0.20719435125352886
aF0.20722181177113377
aF0.3304637898890673
aF0.3134529396681767
aF0.26362452782788376
aF0.20755352803766228
aF0.1170445240643967
aF0.18301702672916467
aF0.1605677098987037
aF0.08876920163961109
aF0.06655073603470879
aF0.0549121903888239
aF0.04326961248214279
aF0.1421436227032178
aF0.26942369906161023
aF0.24426726236784133
aF0.2846718135359379
aF0.25655283101491666
aF0.09866950906032189
aF0.3351735324657969
aF0.3526482373914295
aF0.24855548569969144
aF0.40078628898554075
as(I3
I4
tp621
(lp622
F0.6321821388837977
aF0.5859940914585237
aF0.3776841048294376
aF0.25287196009490426
aF0.4456270339863192
aF0.8074725206105491
aF0.8198333663821914
aF0.31498266011129517
aF2.0462948606366145
aF3.0363369210374582
aF3.023939965071173
aF1.8041441354603864
aF0.9587681014535503
aF0.8187408035151299
aF0.8045246315108207
aF0.8153694597716116
aF0.6886691675091499
aF0.5667158238353937
aF0.3149004020850027
aF0.26407832852401025
aF0.23046903126331544
aF0.32394506138890045
aF0.43400124988867816
aF0.4961499612077684
aF0.39027324656812656
aF0.32226389673378397
aF0.4235649203751731
aF0.4345434084891922
aF0.49435446032837593
aF0.4672892450268651
aF0.44041441183482394
aF0.5858391831378789
aF0.6807224970334068
aF0.5797860293033256
aF0.6559739454397506
aF0.7739517246402307
aF0.9290488748148135
aF0.996752466150378
aF0.7385619054768888
aF0.6524110763559384
aF0.6614867634351647
aF0.6674242991320439
aF0.8598981074452094
aF0.8010622826577778
aF0.6628845431788555
aF0.6436320499179701
aF0.6129953015788367
aF0.7642612835515111
aF0.824029824648841
aF0.7727740853661357
aF0.6795468353091254
aF0.49432253075528804
aF0.49522291730590146
aF0.5339188416688553
aF0.7013933596062891
aF0.9434643711537741
aF0.6446783516693465
aF0.5910374444354215
aF0.9909369360052166
aF1.0400898433575536
aF0.8966936802028205
aF0.49823221635823745
aF0.39060043793986465
aF0.6042802668998357
aF0.6528573052411225
aF0.5174456340523624
aF0.4714095359722747
aF0.42659482564902973
aF0.4166610255297669
aF0.4142323148244799
aF0.2161527748281877
aF0.17505587772210698
aF0.35204244184404004
aF0.3638593983843983
aF0.3200276501144354
aF0.2588457567009769
aF0.23046903126331544
aF0.30327218833404523
aF0.281170553841369
aF0.28483503858866543
aF0.4566458143898671
aF0.4247755825088781
aF0.2817057628739213
aF0.2873511134372619
aF0.39316751518948084
aF0.31964976176649923
aF0.18598848916465577
aF0.19111444671578173
aF0.18094746666983091
aF0.26483132675350557
aF0.24109853825384256
aF0.28221348865438345
aF0.40396845348274996
aF0.3291005761167242
aF0.2521801908423225
aF0.23270666837162762
aF0.2675425584469431
aF0.26872770147606895
aF0.16438679490847258
aF0.22119880538597278
aF0.22119880538597278
aF0.3479628272427528
aF0.45516379283444003
aF0.4023808039861232
aF0.46374099565892046
aF0.5339932121100472
aF0.5649495778683833
aF0.45442794812306253
aF0.27294760409915286
aF0.3985213269295408
aF0.49982218841950266
aF0.3806852128081282
aF0.36351069296148936
aF0.4062136145638681
aF0.43939821321748596
aF0.4519806038877085
aF0.4556313242930435
aF0.44647019073307653
aF0.473802645147089
aF0.4308619131624553
aF0.41173593843231227
aF0.5868114649243129
aF0.660746739522256
aF0.5942951296290719
aF0.558697171380395
aF0.676983683673541
aF0.6543862959431238
aF0.7145838110644593
aF0.7522637879521439
aF0.6643495446347581
aF0.6239239730506212
aF0.8010741430451181
aF0.8723754641818287
aF0.5733850556871798
aF0.5413685647622937
aF0.5181571597726319
aF0.43205567182546506
aF0.5311657846957288
aF0.4603959729716001
aF0.3614928975492931
aF0.32353496828576267
aF0.3861256632694852
aF0.4282939691995066
aF0.5187285753743498
aF0.43649362814053333
aF0.25532371319270253
aF0.3313146237015636
aF0.3609141418871593
aF0.39755073441700384
aF0.3677021371980168
aF0.3870754090762944
aF0.3602299844526747
aF0.2730383208734629
aF0.2955647902423614
aF0.20738307890887292
aF0.35931663658337315
aF0.43571927966631524
aF0.3540985083858519
aF0.38953780362727014
aF0.5594765542454794
aF0.6261365802850701
aF0.4653390062870785
aF0.20719435125352886
aF0.20722181177113377
aF0.33046378988906727
aF0.3134529396681767
aF0.2636245278278838
aF0.20755352803766228
aF0.1170445240643967
aF0.1830170267291647
aF0.16056770989870373
aF0.08876920163961109
aF0.06655073603470879
aF0.0549121903888239
aF0.04326961248214279
aF0.1421436227032178
aF0.2694236990616103
aF0.24426726236784133
aF0.2846718135359379
aF0.25655283101491666
aF0.09866950906032189
aF0.33517353246579684
aF0.3526482373914296
aF0.24855548569969138
aF0.4007862889855407
as(I8
I4
tp623
(lp624
F1.6566666827890955
aF3.0317013730113183
aF2.8170954269140815
aF2.4388637793563857
aF2.9054898836372525
aF2.9303532793690987
aF1.4694848332570407
aF0.6142002617096598
aF2.7092378670911446
aF2.8874778750128614
aF3.0148856076621087
aF3.56964865740207
aF3.524521967925438
aF3.3469045887234747
aF3.3801962545226183
aF3.673725707538668
aF3.4456323657503316
aF2.930133689529741
aF2.779484463044255
aF2.834976131272821
aF2.914907785053847
aF2.692163485654278
aF2.8208746999452363
aF3.3828761660471462
aF3.286730723595433
aF3.3248319173277423
aF3.3600389464531
aF3.0087109551839855
aF3.2546424615248037
aF3.329170784745161
aF2.8001043109216073
aF3.182779954108297
aF3.512627254876152
aF3.565763982447482
aF3.167194632489425
aF3.2568522560052013
aF3.6143566010196926
aF3.636106224416041
aF3.163414850358552
aF3.2734096473177994
aF3.1928785854663393
aF3.070224299075617
aF3.5065024456558445
aF3.613421321343133
aF3.3312597472655874
aF3.12004015418375
aF3.243031432193779
aF3.4066736633951473
aF3.511993749914346
aF3.0133853983535923
aF2.9937506679290715
aF3.1784517174195193
aF3.1959788776117786
aF3.044003175728515
aF3.32075281597299
aF3.5658456009698867
aF3.281604813707025
aF3.381466383716854
aF3.690227072786663
aF3.7234777717942995
aF3.430753683550696
aF2.4739686430912635
aF2.321496498579215
aF2.990557200748882
aF3.208356415234903
aF2.745002228455876
aF2.591575857245048
aF2.3624139296425155
aF2.98756033678616
aF2.9068764811057934
aF2.388453749182459
aF2.0209432152524465
aF2.647307296722662
aF2.4532321034343463
aF2.535128594994303
aF2.6925732374163895
aF2.486286419315121
aF2.8261481377278326
aF3.1493567249728898
aF3.17709681530084
aF3.3311886091918907
aF3.4032544627909886
aF3.008961066776066
aF2.9382377418121948
aF3.0270927117183763
aF3.062437994449836
aF3.0155285473178233
aF3.463106814188792
aF3.2598872265425816
aF3.2467708315700823
aF3.169288014054816
aF3.197251887867439
aF3.461873908102989
aF3.1886858078452467
aF3.121527954046502
aF3.406459911532048
aF3.357199569592659
aF3.2108262130006
aF2.814941173426064
aF2.833471399213189
aF3.2457180084382853
aF3.3747946668806756
aF3.510873018903187
aF3.353110394735943
aF3.363482831271108
aF3.5770102487397093
aF3.4231048918618945
aF3.0739894247953186
aF3.050510841815968
aF3.2832187564239095
aF3.1787706360760204
aF2.699865093486187
aF2.797415632869958
aF3.0844436590942363
aF3.1876427182677602
aF3.2997651703266104
aF3.2862795095795327
aF3.2943837260034377
aF3.2528943246347892
aF2.961196414409116
aF3.094831686474573
aF2.9834907700340745
aF3.2307235299411903
aF3.2410932492835394
aF3.0307725141136976
aF3.3645500366796277
aF3.3081807386396442
aF3.360554610890581
aF3.2632860796112717
aF3.336658113356574
aF3.4080979234427766
aF3.422783650283551
aF3.868972171781156
aF3.403515815950953
aF3.311609220783459
aF3.520920206049897
aF3.5199346705871224
aF3.428243913027705
aF3.1461125237950514
aF2.568194683064833
aF2.4601979110658463
aF2.8701066705903724
aF3.012466028107212
aF3.3538550659558855
aF3.2927230256944107
aF2.7767325358056323
aF2.6899724347812013
aF3.2494474141510445
aF3.0627029392252316
aF2.5761022469157657
aF2.85918762427414
aF2.563430990136698
aF2.7400572520381075
aF2.771011921049013
aF2.7337516781179594
aF3.340711334109935
aF3.4237490981476775
aF3.230839793780108
aF3.240182998338407
aF2.615015865577546
aF2.8009846913
aF2.904680187349311
aF2.4629202494808484
aF2.205793310203777
aF3.010661981177701
aF3.1446329295045667
aF3.2746352143668718
aF2.7637830549051654
aF2.030383558802951
aF2.403771268942093
aF2.5382992653787406
aF2.79104198452499
aF2.8976814692510087
aF2.947322467730451
aF2.625202244622533
aF2.9976434042524844
aF2.8505046625641524
aF2.638350352920006
aF2.581463009438031
aF1.9111558999080394
aF1.705826969069772
aF2.832645585779848
aF2.7822216887988485
aF2.9367057720129215
aF2.848602095316992
astp625
.